(lp0
S'<!DOCTYPE html>\r\n<!--[if IEMobile 7]><html class="iem7 no-js" lang="en" dir="ltr"><![endif]-->\r\n<!--[if lt IE 7]><html class="lt-ie9 lt-ie8 lt-ie7 no-js" lang="en" dir="ltr"><![endif]-->\r\n<!--[if (IE 7)&(!IEMobile)]><html class="lt-ie9 lt-ie8 no-js" lang="en" dir="ltr"><![endif]-->\r\n<!--[if IE 8]><html class="lt-ie9 no-js" lang="en" dir="ltr"><![endif]-->\r\n<!--[if (gt IE 8)|(gt IEMobile 7)]><!--> <html class="no-js not-oldie" lang="en" dir="ltr"><!-- InstanceBegin template="/Templates/1epane-18f.dwt" codeOutsideHTMLIsLocked="false" -->\r\n <!--<![endif]-->\r\n<head>\r\n    <meta charset="utf-8" />\r\n    <meta http-equiv="X-UA-Compatible" content="IE=edge" />\r\n    <meta name="HandheldFriendly" content="true" />\r\n    <link rel="shortcut icon" href="https://www.epa.gov/sites/all/themes/epa/favicon.ico" type="image/vnd.microsoft.icon" />\r\n    <meta name="MobileOptimized" content="width" />\r\n    <meta http-equiv="cleartype" content="on" />\r\n    <meta http-equiv="ImageToolbar" content="false" />\r\n    <meta name="viewport" content="width=device-width" />\r\n    <meta name="version" content="20161218" />\r\n    <!--googleon: all-->\r\n    <!-- InstanceBeginEditable name="metaElements" -->\r\n<title>Connecticut Draft Individual NPDES Permits | NPDES Permits in New England | US EPA</title>\r\n<meta name="DC.description" content="EPA New England Issued Draft NPDES Permits for Connecticut" />\r\n<meta name="keywords" content="npdes, national pollutant discharge elimination system, wastewater, discharge, stormwater, publicly owned treatment works facility, potw, water pollution control facility, wpcf, wastewater treatment facility, wwtf, wastewater treatment plant, wwtp, draft permit, connecticut" />\r\n<meta name="DC.title" content="Connecticut Draft Individual NPDES Permits" />\r\n<meta name="DC.Subject.epabrm" content="Manage Water Quality" />\r\n<meta name="DC.type" content="Announcements &amp; Schedules" />\r\n<meta name="DC.Subject.epachannel" content="Laws &amp; Regulations" />\r\n<meta http-equiv="Refresh" content="15;URL=https://www.epa.gov/npdes-permits/connecticut-draft-individual-npdes-permits" />\r\n<!-- InstanceEndEditable -->\r\n    <!--googleoff: snippet-->\r\n    <meta name="DC.creator" content="US EPA,REG 01" />\r\n    <meta name="DC.language" content="en" />\r\n    <meta name="DC.date.created" content="2011-02-14" />\r\n    <meta name="DC.date.modified" content="2017-05-19" />\r\n    <!--googleoff: all-->\r\n    <link type="text/css" rel="stylesheet" href="../18f-files/a.css" media="all" />\r\n    <link type="text/css" rel="stylesheet" href="../18f-files/b.css" media="all" />\r\n    <link type="text/css" rel="stylesheet" href="../18f-files/c.css" media="all" />\r\n    <link type="text/css" rel="stylesheet" href="../18f-files/d.css" media="all" />\r\n    \r\n    <!--[if lt IE 9]><link type="text/css" rel="stylesheet" href="../18f-files/e-ie.css" media="all" /><![endif]-->\r\n    <link rel="alternate" type="application/atom+xml" title="EPA.gov All Press Releases" href="https://www.epa.gov/newsreleases/search/rss" />\r\n    <link rel="alternate" type="application/atom+xml" title="EPA.gov Headquarters Press Releases" href="https://www.epa.gov/newsreleases/search/rss/field_press_office/headquarters" />\r\n    <link rel="alternate" type="application/atom+xml" title="Greenversations, EPA\'s Blog" href="https://blog.epa.gov/blog/feed/" />\r\n    <!--[if lt IE 9]><script src="https://www.epa.gov/sites/all/themes/epa/js/html5.js"></script><![endif]-->\r\n    <link type="text/css" rel="stylesheet" href="../18f-files/f.css" media="all" />\r\n    \r\n</head>\r\n<body class="html not-front not-logged-in one-sidebar sidebar-first page-node page-node-2553 node-type-page og-context og-context-node og-context-node-851 section-aboutepa microsite" >\r\n\r\n    <!-- Google Tag Manager -->\r\n<noscript><iframe src="//www.googletagmanager.com/ns.html?id=GTM-L8ZB" height="0" width="0" style="display:none;visibility:hidden"></iframe></noscript>\r\n<script>(function(w,d,s,l,i){w[l]=w[l]||[];w[l].push({\'gtm.start\':new Date().getTime(),event:\'gtm.js\'});var f=d.getElementsByTagName(s)[0],j=d.createElement(s),dl=l!=\'dataLayer\'?\'&l=\'+l:\'\';j.async=true;j.src=\'//www.googletagmanager.com/gtm.js?id=\'+i+dl;f.parentNode.insertBefore(j,f);})(window,document,\'script\',\'dataLayer\',\'GTM-L8ZB\');</script>\r\n  <!-- End Google Tag Manager -->\r\n  <div class="skip-links"><a href="#main-content" class="skip-link element-invisible element-focusable">Jump to main content</a></div>\r\n  <header class="masthead clearfix" role="banner">\r\n    <img class="site-logo" src="https://www.epa.gov/sites/all/themes/epa/logo.png" alt="" />\r\n    <hgroup class="site-name-and-slogan">\r\n      <h1 class="site-name"><a href="https://www.epa.gov/" title="Go to the home page" rel="home"><span>US EPA</span></a></h1>\r\n      <div class="site-slogan">United States Environmental Protection Agency</div>\r\n    </hgroup>\r\n    <form class="epa-search" method="get" action="https://search.epa.gov/epasearch/epasearch">\r\n      <label class="element-hidden" for="search-box">Search</label>\r\n      <input class="form-text" placeholder="Search EPA.gov" name="querytext" id="search-box" value=""/>\r\n      <button class="epa-search-button" id="search-button" type="submit" title="Search">Search</button>\r\n      <input type="hidden" name="areaname" value="" />\r\n      <input type="hidden" name="areacontacts" value="" />\r\n      <input type="hidden" name="areasearchurl" value="" />\r\n      <input type="hidden" name="typeofsearch" value="epa" />\r\n      <input type="hidden" name="result_template" value="2col.ftl" />\r\n    </form>\r\n  </header>\r\n  <section id="main-content" class="main-content clearfix" role="main">\r\n  <h2 class="microsite-name">Region 1: EPA New England</h2>  \r\n    <div class="region-preface clearfix">\r\n    \r\n    <div id="block-pane-social-sharing" class="block block-pane block-pane-social-sharing">\r\n    \r\n    </div>\r\n    \r\n      <div id="block-pane-epa-web-area-connect" class="block block-pane contextual-links-region">\r\n        <ul class="menu utility-menu">\r\n          <li class="menu-item"><a href="https://www.epa.gov/aboutepa/forms/contacting-epa-new-england" class="menu-link contact-us">Contact Us</a></li>\r\n        </ul>\r\n      </div>\r\n    </div>\r\n    <div class="main-column clearfix">\r\n<!--googleon: all-->\r\n      <h1 class="page-title"><!-- InstanceBeginEditable name="PageName" -->Connecticut Draft Individual NPDES Permits<!-- InstanceEndEditable --></h1>\r\n      <div class="panel-pane pane-node-content" >\r\n        <div class="pane-content">\r\n          <div class="node node-page clearfix view-mode-full"><!-- InstanceBeginEditable name="content" -->\r\n\r\n\r\n            <p>The Connecticut Draft Individual NPDES Permits webpage has moved. This web address will expire soon.</p>\r\n            <p>You will be redirected in <span id="timeLeft">10</span> seconds to the new web address (<a href="https://www.epa.gov/npdes-permits/connecticut-draft-individual-npdes-permits">https://www.epa.gov/npdes-permits/connecticut-draft-individual-npdes-permits</a>).</p>\r\n            <p>Please update your bookmarks.</p>\r\n\r\n      <!-- InstanceEndEditable --></div>\r\n        </div>\r\n      </div>\r\n\r\n    <div id="block-pane-epa-web-area-footer" class="block block-pane block-pane-epa-web-area-footer">\r\n      \r\n        <p class="web-area-footer"><a href="https://www.epa.gov/aboutepa/forms/contacting-epa-new-england" class="contact-us">Contact Us</a> to ask a question, provide feedback, or report a problem.</p>  \r\n    </div>\r\n\r\n    <!--googleoff: all-->\r\n    </div>\r\n    \r\n    <div class="region-sidebar-first region-sidebar">  \r\n      <div id="block-og-menu-og-single-menu-block" class="block block-og-menu block-og-menu-og-single-menu-block">\r\n      <noscript><h3 class="whiteText" style="text-align:center; padding-top:20px;">This page requires Javascript. Please enable it in your browser settings.</h3></noscript>\r\n        <script type="text/javascript" src="../18f-files/r1-left-nav.js"></script>\r\n        </div>\r\n    </div>\r\n    \r\n</section>\r\n  \r\n  <nav class="nav simple-nav simple-main-nav" role="navigation">\r\n    <div class="nav__inner">\r\n        <h2 class="element-invisible">Main menu</h2>    \r\n        <ul class="menu">\r\n          <li class="menu-item" id="main-menu-enviro-topics"><a href="https://www.epa.gov/environmental-topics" title="Learn about EPA&#039;s environmental topics to help protect the environment in your home, workplace, and community and EPA&#039;s research mission is to conduct leading-edge research and foster the sound use of science and technology." class="menu-link">Environmental Topics</a>\r\n          </li>\r\n            <li class="menu-item" id="main-menu-laws-regs"><a href="https://www.epa.gov/laws-regulations" title="Laws written by Congress provide the authority for EPA to write regulations. Regulations explain the technical, operational, and legal details necessary to implement laws." class="menu-link">Laws &amp; Regulations</a>\r\n            </li>\r\n          <li class="menu-item" id="main-menu-about-epa"><a href="https://www.epa.gov/aboutepa" title="Learn more about: our mission and what we do, how we are organized, and our history." class="menu-link">About EPA</a>\r\n          </li>\r\n        </ul>\r\n\r\n    </div>\r\n  </nav>\r\n  \r\n<footer class="main-footer clearfix" role="contentinfo">\r\n    <div class="main-footer__inner">\r\n        <div class="region-footer">\r\n            <div id="block-pane-epa-global-footer" class="block block-pane  block-pane-epa-global-footer">\r\n                <div class="row cols-3">\r\n                    <div class="col size-1of3">\r\n                        <div class="col__title">Discover.</div>\r\n                        <ul class="menu">\r\n                          <li><a href="https://www.epa.gov/accessibility">Accessibility</a></li>\r\n                          <li><a href="https://www.epa.gov/aboutepa/administrator-gina-mccarthy">EPA Administrator</a></li>\r\n                          <li><a href="https://www.epa.gov/planandbudget">Budget &amp; Performance</a></li>\r\n                          <li><a href="https://www.epa.gov/contracts">Contracting</a></li>\r\n                          <li><a href="https://www.epa.gov/home/grants-and-other-funding-opportunities">Grants</a></li>\r\n                          <li><a href="https://www.epa.gov/ocr/whistleblower-protections-epa-and-how-they-relate-non-disclosure-agreements-signed-epa-employees">No FEAR Act Data</a></li>\r\n                          <li><a href="https://www.epa.gov/home/privacy-and-security-notice">Privacy and Security</a></li>\r\n                        </ul>\r\n                    </div>\r\n                    \r\n                    <div class="col size-1of3">\r\n                        <div class="col__title">Connect.</div>\r\n                        <ul class="menu">\r\n                          <li><a href="https://www.data.gov/">Data.gov</a></li>\r\n                          <li><a href="https://www.epa.gov/office-inspector-general/about-epas-office-inspector-general">Inspector General</a></li>\r\n                          <li><a href="https://www.epa.gov/careers">Jobs</a></li>\r\n                          <li><a href="https://www.epa.gov/newsroom">Newsroom</a></li>\r\n                          <li><a href="https://www.whitehouse.gov/open">Open Government</a></li>\r\n                          <li><a href="http://www.regulations.gov/">Regulations.gov</a></li>\r\n                          <li><a href="https://www.epa.gov/newsroom/email-subscriptions">Subscribe</a></li>\r\n                          <li><a href="https://www.usa.gov/">USA.gov</a></li>\r\n                          <li><a href="https://www.whitehouse.gov/">White House</a></li>\r\n                        </ul>\r\n                    </div>\r\n                    \r\n                    <div class="col size-1of3">\r\n                        <div class="col__title">Ask.</div>\r\n                        <ul class="menu">\r\n                          <li><a href="https://www.epa.gov/home/forms/contact-us">Contact Us</a></li>\r\n                          <li><a href="https://www.epa.gov/home/epa-hotlines">Hotlines</a></li>\r\n                          <li><a href="https://www.epa.gov/foia">FOIA Requests</a></li>\r\n                          <li><a href="https://www.epa.gov/home/frequent-questions-specific-epa-programstopics">Frequent Questions</a></li>\r\n                        </ul>\r\n                        \r\n                        <div class="col__title">Follow.</div>\r\n                        <ul class="social-menu">\r\n                          <li><a class="menu-link social-facebook" href="https://www.facebook.com/EPA">Facebook</a></li>\r\n                          <li><a class="menu-link social-twitter" href="https://twitter.com/epa">Twitter</a></li>\r\n                          <li><a class="menu-link social-youtube" href="https://www.youtube.com/user/USEPAgov">YouTube</a></li>\r\n                          <li><a class="menu-link social-flickr" href="https://www.flickr.com/photos/usepagov">Flickr</a></li>\r\n                          <li><a class="menu-link social-instagram" href="https://www.instagram.com/epagov">Instagram</a></li>\r\n                        </ul>\r\n                        \r\n                        <p class="last-updated">Last updated on <!-- #BeginDate format:Am1 -->August 25, 2017<!-- #EndDate --></p>\r\n                    </div>\r\n                </div>  \r\n            </div>\r\n        </div>\r\n    </div>\r\n</footer>   \r\n\r\n<script type="text/javascript" src="https://www.epa.gov/sites/all/libraries/template/jquery.js"></script>\r\n<script type="text/javascript" src="../18f-files/template-js.js"></script>\r\n<script type="text/javascript" src="https://www.epa.gov/sites/all/modules/custom/epa_core/js/alert.js"></script>  \r\n<script type="text/javascript" src="../18f-files/append-submenu.js"></script>  \r\n<script type="text/javascript" src="https://www3.epa.gov/region1/js/slimbox2/js/slimbox2.js"></script>\r\n<script type="text/javascript">\r\n(function ($){\r\n\t$(\'head\').append(\'<link rel="stylesheet" type="text/css" href="https://www3.epa.gov/region1/js/slimbox2/css/slimbox2.css" />\');\r\n})(jQuery);\r\n</script>\r\n<!-- InstanceBeginEditable name="scripts" --> \r\n<script type="text/javascript">\r\n(function ($){\r\n\r\n    window.setInterval(function() {\r\n    var timeLeft = $(\'#timeLeft\').html();                                \r\n        if(parseInt(timeLeft) == 0){\r\n                window.location= (\'https://www.epa.gov/npdes-permits/connecticut-draft-individual-npdes-permits\');                 \r\n        }else{              \r\n            $(\'#timeLeft\').html(parseInt(timeLeft) - parseInt(1));\r\n        }\r\n    }, 1000); \r\n\r\n})(jQuery);\r\n</script>\r\n<style>\r\n#timeLeft { color:red; font-weight: bold; }\r\n</style>\r\n<!-- InstanceEndEditable --> \r\n<!--[if lt IE 9]><script src="https://www.epa.gov/sites/all/themes/epa/js/ie.js"></script><![endif]-->\r\n</body>\r\n<!-- InstanceEnd --></html>\r\n'
p1
aS'<!DOCTYPE html>\r\n<!--[if IEMobile 7]><html class="iem7 no-js" lang="en" dir="ltr"><![endif]-->\r\n<!--[if lt IE 7]><html class="lt-ie9 lt-ie8 lt-ie7 no-js" lang="en" dir="ltr"><![endif]-->\r\n<!--[if (IE 7)&(!IEMobile)]><html class="lt-ie9 lt-ie8 no-js" lang="en" dir="ltr"><![endif]-->\r\n<!--[if IE 8]><html class="lt-ie9 no-js" lang="en" dir="ltr"><![endif]-->\r\n<!--[if (gt IE 8)|(gt IEMobile 7)]><!--> <html class="no-js not-oldie" lang="en" dir="ltr"><!-- InstanceBegin template="/Templates/1epane-18f.dwt" codeOutsideHTMLIsLocked="false" -->\r\n <!--<![endif]-->\r\n<head>\r\n    <meta charset="utf-8" />\r\n    <meta http-equiv="X-UA-Compatible" content="IE=edge" />\r\n    <meta name="HandheldFriendly" content="true" />\r\n    <link rel="shortcut icon" href="https://www.epa.gov/sites/all/themes/epa/favicon.ico" type="image/vnd.microsoft.icon" />\r\n    <meta name="MobileOptimized" content="width" />\r\n    <meta http-equiv="cleartype" content="on" />\r\n    <meta http-equiv="ImageToolbar" content="false" />\r\n    <meta name="viewport" content="width=device-width" />\r\n    <meta name="version" content="20161218" />\r\n    <!--googleon: all-->\r\n    <!-- InstanceBeginEditable name="metaElements" -->\r\n<title>Connecticut - Final-issuance Individual Facility Permits | NPDES Permits in New England | US EPA</title>\r\n<meta name="DC.description" content="EPA New England Issued NPDES Permits for Connecticut" />\r\n<meta name="keywords" content="npdes, national pollutant discharge elimination system, wastewater, discharge, stormwater, publicly owned treatment works facility, potw, water pollution control facility, wpcf, wastewater treatment facility, wwtf, wastewater treatment plant, wwtp, final permit, connecticut" />\r\n<meta name="DC.title" content="Connecticut - Final-issuance Individual Facility Permits" />\r\n<meta name="DC.Subject.epabrm" content="Manage Water Quality" />\r\n<meta name="DC.type" content="Collections &amp; Lists" />\r\n<meta name="DC.Subject.epachannel" content="Laws &amp; Regulations" />\r\n<meta http-equiv="Refresh" content="15;URL=https://www.epa.gov/npdes-permits/connecticut-final-individual-npdes-permits" />\r\n<!-- InstanceEndEditable -->\r\n    <!--googleoff: snippet-->\r\n    <meta name="DC.creator" content="US EPA,REG 01" />\r\n    <meta name="DC.language" content="en" />\r\n    <meta name="DC.date.created" content="2011-02-14" />\r\n    <meta name="DC.date.modified" content="2017-05-19" />\r\n    <!--googleoff: all-->\r\n    <link type="text/css" rel="stylesheet" href="../18f-files/a.css" media="all" />\r\n    <link type="text/css" rel="stylesheet" href="../18f-files/b.css" media="all" />\r\n    <link type="text/css" rel="stylesheet" href="../18f-files/c.css" media="all" />\r\n    <link type="text/css" rel="stylesheet" href="../18f-files/d.css" media="all" />\r\n    \r\n    <!--[if lt IE 9]><link type="text/css" rel="stylesheet" href="../18f-files/e-ie.css" media="all" /><![endif]-->\r\n    <link rel="alternate" type="application/atom+xml" title="EPA.gov All Press Releases" href="https://www.epa.gov/newsreleases/search/rss" />\r\n    <link rel="alternate" type="application/atom+xml" title="EPA.gov Headquarters Press Releases" href="https://www.epa.gov/newsreleases/search/rss/field_press_office/headquarters" />\r\n    <link rel="alternate" type="application/atom+xml" title="Greenversations, EPA\'s Blog" href="https://blog.epa.gov/blog/feed/" />\r\n    <!--[if lt IE 9]><script src="https://www.epa.gov/sites/all/themes/epa/js/html5.js"></script><![endif]-->\r\n    <link type="text/css" rel="stylesheet" href="../18f-files/f.css" media="all" />\r\n    \r\n</head>\r\n<body class="html not-front not-logged-in one-sidebar sidebar-first page-node page-node-2553 node-type-page og-context og-context-node og-context-node-851 section-aboutepa microsite" >\r\n\r\n    <!-- Google Tag Manager -->\r\n<noscript><iframe src="//www.googletagmanager.com/ns.html?id=GTM-L8ZB" height="0" width="0" style="display:none;visibility:hidden"></iframe></noscript>\r\n<script>(function(w,d,s,l,i){w[l]=w[l]||[];w[l].push({\'gtm.start\':new Date().getTime(),event:\'gtm.js\'});var f=d.getElementsByTagName(s)[0],j=d.createElement(s),dl=l!=\'dataLayer\'?\'&l=\'+l:\'\';j.async=true;j.src=\'//www.googletagmanager.com/gtm.js?id=\'+i+dl;f.parentNode.insertBefore(j,f);})(window,document,\'script\',\'dataLayer\',\'GTM-L8ZB\');</script>\r\n  <!-- End Google Tag Manager -->\r\n  <div class="skip-links"><a href="#main-content" class="skip-link element-invisible element-focusable">Jump to main content</a></div>\r\n  <header class="masthead clearfix" role="banner">\r\n    <img class="site-logo" src="https://www.epa.gov/sites/all/themes/epa/logo.png" alt="" />\r\n    <hgroup class="site-name-and-slogan">\r\n      <h1 class="site-name"><a href="https://www.epa.gov/" title="Go to the home page" rel="home"><span>US EPA</span></a></h1>\r\n      <div class="site-slogan">United States Environmental Protection Agency</div>\r\n    </hgroup>\r\n    <form class="epa-search" method="get" action="https://search.epa.gov/epasearch/epasearch">\r\n      <label class="element-hidden" for="search-box">Search</label>\r\n      <input class="form-text" placeholder="Search EPA.gov" name="querytext" id="search-box" value=""/>\r\n      <button class="epa-search-button" id="search-button" type="submit" title="Search">Search</button>\r\n      <input type="hidden" name="areaname" value="" />\r\n      <input type="hidden" name="areacontacts" value="" />\r\n      <input type="hidden" name="areasearchurl" value="" />\r\n      <input type="hidden" name="typeofsearch" value="epa" />\r\n      <input type="hidden" name="result_template" value="2col.ftl" />\r\n    </form>\r\n  </header>\r\n  <section id="main-content" class="main-content clearfix" role="main">\r\n  <h2 class="microsite-name">Region 1: EPA New England</h2>  \r\n    <div class="region-preface clearfix">\r\n    \r\n    <div id="block-pane-social-sharing" class="block block-pane block-pane-social-sharing">\r\n    \r\n    </div>\r\n    \r\n      <div id="block-pane-epa-web-area-connect" class="block block-pane contextual-links-region">\r\n        <ul class="menu utility-menu">\r\n          <li class="menu-item"><a href="https://www.epa.gov/aboutepa/forms/contacting-epa-new-england" class="menu-link contact-us">Contact Us</a></li>\r\n        </ul>\r\n      </div>\r\n    </div>\r\n    <div class="main-column clearfix">\r\n<!--googleon: all-->\r\n      <h1 class="page-title"><!-- InstanceBeginEditable name="PageName" -->Connecticut Final Individual NPDES Permits<!-- InstanceEndEditable --></h1>\r\n      <div class="panel-pane pane-node-content" >\r\n        <div class="pane-content">\r\n          <div class="node node-page clearfix view-mode-full"><!-- InstanceBeginEditable name="content" -->\r\n\r\n\r\n            <p>The Connecticut Final Individual NPDES Permits webpage has moved. This web address will expire soon.</p>\r\n            <p>You will be redirected in <span id="timeLeft">10</span> seconds to the new web address (<a href="https://www.epa.gov/npdes-permits/connecticut-final-individual-npdes-permits">https://www.epa.gov/npdes-permits/connecticut-final-individual-npdes-permits</a>).</p>\r\n            <p>Please update your bookmarks.</p>\r\n\r\n      <!-- InstanceEndEditable --></div>\r\n        </div>\r\n      </div>\r\n\r\n    <div id="block-pane-epa-web-area-footer" class="block block-pane block-pane-epa-web-area-footer">\r\n      \r\n        <p class="web-area-footer"><a href="https://www.epa.gov/aboutepa/forms/contacting-epa-new-england" class="contact-us">Contact Us</a> to ask a question, provide feedback, or report a problem.</p>  \r\n    </div>\r\n\r\n    <!--googleoff: all-->\r\n    </div>\r\n    \r\n    <div class="region-sidebar-first region-sidebar">  \r\n      <div id="block-og-menu-og-single-menu-block" class="block block-og-menu block-og-menu-og-single-menu-block">\r\n      <noscript><h3 class="whiteText" style="text-align:center; padding-top:20px;">This page requires Javascript. Please enable it in your browser settings.</h3></noscript>\r\n        <script type="text/javascript" src="../18f-files/r1-left-nav.js"></script>\r\n        </div>\r\n    </div>\r\n    \r\n</section>\r\n  \r\n  <nav class="nav simple-nav simple-main-nav" role="navigation">\r\n    <div class="nav__inner">\r\n        <h2 class="element-invisible">Main menu</h2>    \r\n        <ul class="menu">\r\n          <li class="menu-item" id="main-menu-enviro-topics"><a href="https://www.epa.gov/environmental-topics" title="Learn about EPA&#039;s environmental topics to help protect the environment in your home, workplace, and community and EPA&#039;s research mission is to conduct leading-edge research and foster the sound use of science and technology." class="menu-link">Environmental Topics</a>\r\n          </li>\r\n            <li class="menu-item" id="main-menu-laws-regs"><a href="https://www.epa.gov/laws-regulations" title="Laws written by Congress provide the authority for EPA to write regulations. Regulations explain the technical, operational, and legal details necessary to implement laws." class="menu-link">Laws &amp; Regulations</a>\r\n            </li>\r\n          <li class="menu-item" id="main-menu-about-epa"><a href="https://www.epa.gov/aboutepa" title="Learn more about: our mission and what we do, how we are organized, and our history." class="menu-link">About EPA</a>\r\n          </li>\r\n        </ul>\r\n\r\n    </div>\r\n  </nav>\r\n  \r\n<footer class="main-footer clearfix" role="contentinfo">\r\n    <div class="main-footer__inner">\r\n        <div class="region-footer">\r\n            <div id="block-pane-epa-global-footer" class="block block-pane  block-pane-epa-global-footer">\r\n                <div class="row cols-3">\r\n                    <div class="col size-1of3">\r\n                        <div class="col__title">Discover.</div>\r\n                        <ul class="menu">\r\n                          <li><a href="https://www.epa.gov/accessibility">Accessibility</a></li>\r\n                          <li><a href="https://www.epa.gov/aboutepa/administrator-gina-mccarthy">EPA Administrator</a></li>\r\n                          <li><a href="https://www.epa.gov/planandbudget">Budget &amp; Performance</a></li>\r\n                          <li><a href="https://www.epa.gov/contracts">Contracting</a></li>\r\n                          <li><a href="https://www.epa.gov/home/grants-and-other-funding-opportunities">Grants</a></li>\r\n                          <li><a href="https://www.epa.gov/ocr/whistleblower-protections-epa-and-how-they-relate-non-disclosure-agreements-signed-epa-employees">No FEAR Act Data</a></li>\r\n                          <li><a href="https://www.epa.gov/home/privacy-and-security-notice">Privacy and Security</a></li>\r\n                        </ul>\r\n                    </div>\r\n                    \r\n                    <div class="col size-1of3">\r\n                        <div class="col__title">Connect.</div>\r\n                        <ul class="menu">\r\n                          <li><a href="https://www.data.gov/">Data.gov</a></li>\r\n                          <li><a href="https://www.epa.gov/office-inspector-general/about-epas-office-inspector-general">Inspector General</a></li>\r\n                          <li><a href="https://www.epa.gov/careers">Jobs</a></li>\r\n                          <li><a href="https://www.epa.gov/newsroom">Newsroom</a></li>\r\n                          <li><a href="https://www.whitehouse.gov/open">Open Government</a></li>\r\n                          <li><a href="http://www.regulations.gov/">Regulations.gov</a></li>\r\n                          <li><a href="https://www.epa.gov/newsroom/email-subscriptions">Subscribe</a></li>\r\n                          <li><a href="https://www.usa.gov/">USA.gov</a></li>\r\n                          <li><a href="https://www.whitehouse.gov/">White House</a></li>\r\n                        </ul>\r\n                    </div>\r\n                    \r\n                    <div class="col size-1of3">\r\n                        <div class="col__title">Ask.</div>\r\n                        <ul class="menu">\r\n                          <li><a href="https://www.epa.gov/home/forms/contact-us">Contact Us</a></li>\r\n                          <li><a href="https://www.epa.gov/home/epa-hotlines">Hotlines</a></li>\r\n                          <li><a href="https://www.epa.gov/foia">FOIA Requests</a></li>\r\n                          <li><a href="https://www.epa.gov/home/frequent-questions-specific-epa-programstopics">Frequent Questions</a></li>\r\n                        </ul>\r\n                        \r\n                        <div class="col__title">Follow.</div>\r\n                        <ul class="social-menu">\r\n                          <li><a class="menu-link social-facebook" href="https://www.facebook.com/EPA">Facebook</a></li>\r\n                          <li><a class="menu-link social-twitter" href="https://twitter.com/epa">Twitter</a></li>\r\n                          <li><a class="menu-link social-youtube" href="https://www.youtube.com/user/USEPAgov">YouTube</a></li>\r\n                          <li><a class="menu-link social-flickr" href="https://www.flickr.com/photos/usepagov">Flickr</a></li>\r\n                          <li><a class="menu-link social-instagram" href="https://www.instagram.com/epagov">Instagram</a></li>\r\n                        </ul>\r\n                        \r\n                        <p class="last-updated">Last updated on <!-- #BeginDate format:Am1 -->August 25, 2017<!-- #EndDate --></p>\r\n                    </div>\r\n                </div>  \r\n            </div>\r\n        </div>\r\n    </div>\r\n</footer>   \r\n\r\n<script type="text/javascript" src="https://www.epa.gov/sites/all/libraries/template/jquery.js"></script>\r\n<script type="text/javascript" src="../18f-files/template-js.js"></script>\r\n<script type="text/javascript" src="https://www.epa.gov/sites/all/modules/custom/epa_core/js/alert.js"></script>  \r\n<script type="text/javascript" src="../18f-files/append-submenu.js"></script>  \r\n<script type="text/javascript" src="https://www3.epa.gov/region1/js/slimbox2/js/slimbox2.js"></script>\r\n<script type="text/javascript">\r\n(function ($){\r\n\t$(\'head\').append(\'<link rel="stylesheet" type="text/css" href="https://www3.epa.gov/region1/js/slimbox2/css/slimbox2.css" />\');\r\n})(jQuery);\r\n</script>\r\n<!-- InstanceBeginEditable name="scripts" --> \r\n<script type="text/javascript">\r\n(function ($){\r\n\r\n    window.setInterval(function() {\r\n    var timeLeft = $(\'#timeLeft\').html();                                \r\n        if(parseInt(timeLeft) == 0){\r\n                window.location= (\'https://www.epa.gov/npdes-permits/connecticut-final-individual-npdes-permits\');                 \r\n        }else{              \r\n            $(\'#timeLeft\').html(parseInt(timeLeft) - parseInt(1));\r\n        }\r\n    }, 1000); \r\n\r\n})(jQuery);\r\n</script>\r\n<style>\r\n#timeLeft { color:red; font-weight: bold; }\r\n</style>\r\n<!-- InstanceEndEditable --> \r\n<!--[if lt IE 9]><script src="https://www.epa.gov/sites/all/themes/epa/js/ie.js"></script><![endif]-->\r\n</body>\r\n<!-- InstanceEnd --></html>\r\n'
p2
aS'<!DOCTYPE html>\r\n<!--[if IEMobile 7]><html class="iem7 no-js" lang="en" dir="ltr"><![endif]-->\r\n<!--[if lt IE 7]><html class="lt-ie9 lt-ie8 lt-ie7 no-js" lang="en" dir="ltr"><![endif]-->\r\n<!--[if (IE 7)&(!IEMobile)]><html class="lt-ie9 lt-ie8 no-js" lang="en" dir="ltr"><![endif]-->\r\n<!--[if IE 8]><html class="lt-ie9 no-js" lang="en" dir="ltr"><![endif]-->\r\n<!--[if (gt IE 8)|(gt IEMobile 7)]><!--> <html class="no-js not-oldie" lang="en" dir="ltr"><!-- InstanceBegin template="/Templates/1epane-18f.dwt" codeOutsideHTMLIsLocked="false" -->\r\n <!--<![endif]-->\r\n<head>\r\n    <meta charset="utf-8" />\r\n    <meta http-equiv="X-UA-Compatible" content="IE=edge" />\r\n    <meta name="HandheldFriendly" content="true" />\r\n    <link rel="shortcut icon" href="https://www.epa.gov/sites/all/themes/epa/favicon.ico" type="image/vnd.microsoft.icon" />\r\n    <meta name="MobileOptimized" content="width" />\r\n    <meta http-equiv="cleartype" content="on" />\r\n    <meta http-equiv="ImageToolbar" content="false" />\r\n    <meta name="viewport" content="width=device-width" />\r\n    <meta name="version" content="20161218" />\r\n    <!--googleon: all-->\r\n    <!-- InstanceBeginEditable name="metaElements" -->\r\n<title>Maine Draft Individual NPDES Permits | NPDES Permits in New England | US EPA</title>\r\n<meta name="DC.description" content="EPA New England Issued Draft NPDES Permits for Maine" />\r\n<meta name="keywords" content="npdes, national pollutant discharge elimination system, wastewater, discharge, stormwater, publicly owned treatment works facility, potw, water pollution control facility, wpcf, wastewater treatment facility, wwtf, wastewater treatment plant, wwtp, draft permit, maine" />\r\n<meta name="DC.title" content="Maine Draft Individual NPDES Permits" />\r\n<meta name="DC.Subject.epabrm" content="Manage Water Quality" />\r\n<meta name="DC.type" content="Announcements &amp; Schedules" />\r\n<meta name="DC.Subject.epachannel" content="Laws &amp; Regulations" />\r\n<meta http-equiv="Refresh" content="15;URL=https://www.epa.gov/npdes-permits/maine-draft-individual-npdes-permits" />\r\n<!-- InstanceEndEditable -->\r\n    <!--googleoff: snippet-->\r\n    <meta name="DC.creator" content="US EPA,REG 01" />\r\n    <meta name="DC.language" content="en" />\r\n    <meta name="DC.date.created" content="2011-02-14" />\r\n    <meta name="DC.date.modified" content="2017-05-19" />\r\n    <!--googleoff: all-->\r\n    <link type="text/css" rel="stylesheet" href="../18f-files/a.css" media="all" />\r\n    <link type="text/css" rel="stylesheet" href="../18f-files/b.css" media="all" />\r\n    <link type="text/css" rel="stylesheet" href="../18f-files/c.css" media="all" />\r\n    <link type="text/css" rel="stylesheet" href="../18f-files/d.css" media="all" />\r\n    \r\n    <!--[if lt IE 9]><link type="text/css" rel="stylesheet" href="../18f-files/e-ie.css" media="all" /><![endif]-->\r\n    <link rel="alternate" type="application/atom+xml" title="EPA.gov All Press Releases" href="https://www.epa.gov/newsreleases/search/rss" />\r\n    <link rel="alternate" type="application/atom+xml" title="EPA.gov Headquarters Press Releases" href="https://www.epa.gov/newsreleases/search/rss/field_press_office/headquarters" />\r\n    <link rel="alternate" type="application/atom+xml" title="Greenversations, EPA\'s Blog" href="https://blog.epa.gov/blog/feed/" />\r\n    <!--[if lt IE 9]><script src="https://www.epa.gov/sites/all/themes/epa/js/html5.js"></script><![endif]-->\r\n    <link type="text/css" rel="stylesheet" href="../18f-files/f.css" media="all" />\r\n    \r\n</head>\r\n<body class="html not-front not-logged-in one-sidebar sidebar-first page-node page-node-2553 node-type-page og-context og-context-node og-context-node-851 section-aboutepa microsite" >\r\n\r\n    <!-- Google Tag Manager -->\r\n<noscript><iframe src="//www.googletagmanager.com/ns.html?id=GTM-L8ZB" height="0" width="0" style="display:none;visibility:hidden"></iframe></noscript>\r\n<script>(function(w,d,s,l,i){w[l]=w[l]||[];w[l].push({\'gtm.start\':new Date().getTime(),event:\'gtm.js\'});var f=d.getElementsByTagName(s)[0],j=d.createElement(s),dl=l!=\'dataLayer\'?\'&l=\'+l:\'\';j.async=true;j.src=\'//www.googletagmanager.com/gtm.js?id=\'+i+dl;f.parentNode.insertBefore(j,f);})(window,document,\'script\',\'dataLayer\',\'GTM-L8ZB\');</script>\r\n  <!-- End Google Tag Manager -->\r\n  <div class="skip-links"><a href="#main-content" class="skip-link element-invisible element-focusable">Jump to main content</a></div>\r\n  <header class="masthead clearfix" role="banner">\r\n    <img class="site-logo" src="https://www.epa.gov/sites/all/themes/epa/logo.png" alt="" />\r\n    <hgroup class="site-name-and-slogan">\r\n      <h1 class="site-name"><a href="https://www.epa.gov/" title="Go to the home page" rel="home"><span>US EPA</span></a></h1>\r\n      <div class="site-slogan">United States Environmental Protection Agency</div>\r\n    </hgroup>\r\n    <form class="epa-search" method="get" action="https://search.epa.gov/epasearch/epasearch">\r\n      <label class="element-hidden" for="search-box">Search</label>\r\n      <input class="form-text" placeholder="Search EPA.gov" name="querytext" id="search-box" value=""/>\r\n      <button class="epa-search-button" id="search-button" type="submit" title="Search">Search</button>\r\n      <input type="hidden" name="areaname" value="" />\r\n      <input type="hidden" name="areacontacts" value="" />\r\n      <input type="hidden" name="areasearchurl" value="" />\r\n      <input type="hidden" name="typeofsearch" value="epa" />\r\n      <input type="hidden" name="result_template" value="2col.ftl" />\r\n    </form>\r\n  </header>\r\n  <section id="main-content" class="main-content clearfix" role="main">\r\n  <h2 class="microsite-name">Region 1: EPA New England</h2>  \r\n    <div class="region-preface clearfix">\r\n    \r\n    <div id="block-pane-social-sharing" class="block block-pane block-pane-social-sharing">\r\n    \r\n    </div>\r\n    \r\n      <div id="block-pane-epa-web-area-connect" class="block block-pane contextual-links-region">\r\n        <ul class="menu utility-menu">\r\n          <li class="menu-item"><a href="https://www.epa.gov/aboutepa/forms/contacting-epa-new-england" class="menu-link contact-us">Contact Us</a></li>\r\n        </ul>\r\n      </div>\r\n    </div>\r\n    <div class="main-column clearfix">\r\n<!--googleon: all-->\r\n      <h1 class="page-title"><!-- InstanceBeginEditable name="PageName" -->Maine Draft Individual NPDES Permits<!-- InstanceEndEditable --></h1>\r\n      <div class="panel-pane pane-node-content" >\r\n        <div class="pane-content">\r\n          <div class="node node-page clearfix view-mode-full"><!-- InstanceBeginEditable name="content" -->\r\n\r\n\r\n            <p>The Maine Draft Individual NPDES Permits webpage has moved. This web address will expire soon.</p>\r\n            <p>You will be redirected in <span id="timeLeft">10</span> seconds to the new web address (<a href="https://www.epa.gov/npdes-permits/maine-draft-individual-npdes-permits">https://www.epa.gov/npdes-permits/maine-draft-individual-npdes-permits</a>).</p>\r\n            <p>Please update your bookmarks.</p>\r\n\r\n      <!-- InstanceEndEditable --></div>\r\n        </div>\r\n      </div>\r\n\r\n    <div id="block-pane-epa-web-area-footer" class="block block-pane block-pane-epa-web-area-footer">\r\n      \r\n        <p class="web-area-footer"><a href="https://www.epa.gov/aboutepa/forms/contacting-epa-new-england" class="contact-us">Contact Us</a> to ask a question, provide feedback, or report a problem.</p>  \r\n    </div>\r\n\r\n    <!--googleoff: all-->\r\n    </div>\r\n    \r\n    <div class="region-sidebar-first region-sidebar">  \r\n      <div id="block-og-menu-og-single-menu-block" class="block block-og-menu block-og-menu-og-single-menu-block">\r\n      <noscript><h3 class="whiteText" style="text-align:center; padding-top:20px;">This page requires Javascript. Please enable it in your browser settings.</h3></noscript>\r\n        <script type="text/javascript" src="../18f-files/r1-left-nav.js"></script>\r\n        </div>\r\n    </div>\r\n    \r\n</section>\r\n  \r\n  <nav class="nav simple-nav simple-main-nav" role="navigation">\r\n    <div class="nav__inner">\r\n        <h2 class="element-invisible">Main menu</h2>    \r\n        <ul class="menu">\r\n          <li class="menu-item" id="main-menu-enviro-topics"><a href="https://www.epa.gov/environmental-topics" title="Learn about EPA&#039;s environmental topics to help protect the environment in your home, workplace, and community and EPA&#039;s research mission is to conduct leading-edge research and foster the sound use of science and technology." class="menu-link">Environmental Topics</a>\r\n          </li>\r\n            <li class="menu-item" id="main-menu-laws-regs"><a href="https://www.epa.gov/laws-regulations" title="Laws written by Congress provide the authority for EPA to write regulations. Regulations explain the technical, operational, and legal details necessary to implement laws." class="menu-link">Laws &amp; Regulations</a>\r\n            </li>\r\n          <li class="menu-item" id="main-menu-about-epa"><a href="https://www.epa.gov/aboutepa" title="Learn more about: our mission and what we do, how we are organized, and our history." class="menu-link">About EPA</a>\r\n          </li>\r\n        </ul>\r\n\r\n    </div>\r\n  </nav>\r\n  \r\n<footer class="main-footer clearfix" role="contentinfo">\r\n    <div class="main-footer__inner">\r\n        <div class="region-footer">\r\n            <div id="block-pane-epa-global-footer" class="block block-pane  block-pane-epa-global-footer">\r\n                <div class="row cols-3">\r\n                    <div class="col size-1of3">\r\n                        <div class="col__title">Discover.</div>\r\n                        <ul class="menu">\r\n                          <li><a href="https://www.epa.gov/accessibility">Accessibility</a></li>\r\n                          <li><a href="https://www.epa.gov/aboutepa/administrator-gina-mccarthy">EPA Administrator</a></li>\r\n                          <li><a href="https://www.epa.gov/planandbudget">Budget &amp; Performance</a></li>\r\n                          <li><a href="https://www.epa.gov/contracts">Contracting</a></li>\r\n                          <li><a href="https://www.epa.gov/home/grants-and-other-funding-opportunities">Grants</a></li>\r\n                          <li><a href="https://www.epa.gov/ocr/whistleblower-protections-epa-and-how-they-relate-non-disclosure-agreements-signed-epa-employees">No FEAR Act Data</a></li>\r\n                          <li><a href="https://www.epa.gov/home/privacy-and-security-notice">Privacy and Security</a></li>\r\n                        </ul>\r\n                    </div>\r\n                    \r\n                    <div class="col size-1of3">\r\n                        <div class="col__title">Connect.</div>\r\n                        <ul class="menu">\r\n                          <li><a href="https://www.data.gov/">Data.gov</a></li>\r\n                          <li><a href="https://www.epa.gov/office-inspector-general/about-epas-office-inspector-general">Inspector General</a></li>\r\n                          <li><a href="https://www.epa.gov/careers">Jobs</a></li>\r\n                          <li><a href="https://www.epa.gov/newsroom">Newsroom</a></li>\r\n                          <li><a href="https://www.whitehouse.gov/open">Open Government</a></li>\r\n                          <li><a href="http://www.regulations.gov/">Regulations.gov</a></li>\r\n                          <li><a href="https://www.epa.gov/newsroom/email-subscriptions">Subscribe</a></li>\r\n                          <li><a href="https://www.usa.gov/">USA.gov</a></li>\r\n                          <li><a href="https://www.whitehouse.gov/">White House</a></li>\r\n                        </ul>\r\n                    </div>\r\n                    \r\n                    <div class="col size-1of3">\r\n                        <div class="col__title">Ask.</div>\r\n                        <ul class="menu">\r\n                          <li><a href="https://www.epa.gov/home/forms/contact-us">Contact Us</a></li>\r\n                          <li><a href="https://www.epa.gov/home/epa-hotlines">Hotlines</a></li>\r\n                          <li><a href="https://www.epa.gov/foia">FOIA Requests</a></li>\r\n                          <li><a href="https://www.epa.gov/home/frequent-questions-specific-epa-programstopics">Frequent Questions</a></li>\r\n                        </ul>\r\n                        \r\n                        <div class="col__title">Follow.</div>\r\n                        <ul class="social-menu">\r\n                          <li><a class="menu-link social-facebook" href="https://www.facebook.com/EPA">Facebook</a></li>\r\n                          <li><a class="menu-link social-twitter" href="https://twitter.com/epa">Twitter</a></li>\r\n                          <li><a class="menu-link social-youtube" href="https://www.youtube.com/user/USEPAgov">YouTube</a></li>\r\n                          <li><a class="menu-link social-flickr" href="https://www.flickr.com/photos/usepagov">Flickr</a></li>\r\n                          <li><a class="menu-link social-instagram" href="https://www.instagram.com/epagov">Instagram</a></li>\r\n                        </ul>\r\n                        \r\n                        <p class="last-updated">Last updated on <!-- #BeginDate format:Am1 -->August 25, 2017<!-- #EndDate --></p>\r\n                    </div>\r\n                </div>  \r\n            </div>\r\n        </div>\r\n    </div>\r\n</footer>   \r\n\r\n<script type="text/javascript" src="https://www.epa.gov/sites/all/libraries/template/jquery.js"></script>\r\n<script type="text/javascript" src="../18f-files/template-js.js"></script>\r\n<script type="text/javascript" src="https://www.epa.gov/sites/all/modules/custom/epa_core/js/alert.js"></script>  \r\n<script type="text/javascript" src="../18f-files/append-submenu.js"></script>  \r\n<script type="text/javascript" src="https://www3.epa.gov/region1/js/slimbox2/js/slimbox2.js"></script>\r\n<script type="text/javascript">\r\n(function ($){\r\n\t$(\'head\').append(\'<link rel="stylesheet" type="text/css" href="https://www3.epa.gov/region1/js/slimbox2/css/slimbox2.css" />\');\r\n})(jQuery);\r\n</script>\r\n<!-- InstanceBeginEditable name="scripts" --> \r\n<script type="text/javascript">\r\n(function ($){\r\n\r\n    window.setInterval(function() {\r\n    var timeLeft = $(\'#timeLeft\').html();                                \r\n        if(parseInt(timeLeft) == 0){\r\n                window.location= (\'https://www.epa.gov/npdes-permits/maine-draft-individual-npdes-permits\');                 \r\n        }else{              \r\n            $(\'#timeLeft\').html(parseInt(timeLeft) - parseInt(1));\r\n        }\r\n    }, 1000); \r\n\r\n})(jQuery);\r\n</script>\r\n<style>\r\n#timeLeft { color:red; font-weight: bold; }\r\n</style>\r\n<!-- InstanceEndEditable --> \r\n<!--[if lt IE 9]><script src="https://www.epa.gov/sites/all/themes/epa/js/ie.js"></script><![endif]-->\r\n</body>\r\n<!-- InstanceEnd --></html>\r\n'
p3
aS'<!DOCTYPE html>\r\n<!--[if IEMobile 7]><html class="iem7 no-js" lang="en" dir="ltr"><![endif]-->\r\n<!--[if lt IE 7]><html class="lt-ie9 lt-ie8 lt-ie7 no-js" lang="en" dir="ltr"><![endif]-->\r\n<!--[if (IE 7)&(!IEMobile)]><html class="lt-ie9 lt-ie8 no-js" lang="en" dir="ltr"><![endif]-->\r\n<!--[if IE 8]><html class="lt-ie9 no-js" lang="en" dir="ltr"><![endif]-->\r\n<!--[if (gt IE 8)|(gt IEMobile 7)]><!--> <html class="no-js not-oldie" lang="en" dir="ltr"><!-- InstanceBegin template="/Templates/1epane-18f.dwt" codeOutsideHTMLIsLocked="false" -->\r\n <!--<![endif]-->\r\n<head>\r\n    <meta charset="utf-8" />\r\n    <meta http-equiv="X-UA-Compatible" content="IE=edge" />\r\n    <meta name="HandheldFriendly" content="true" />\r\n    <link rel="shortcut icon" href="https://www.epa.gov/sites/all/themes/epa/favicon.ico" type="image/vnd.microsoft.icon" />\r\n    <meta name="MobileOptimized" content="width" />\r\n    <meta http-equiv="cleartype" content="on" />\r\n    <meta http-equiv="ImageToolbar" content="false" />\r\n    <meta name="viewport" content="width=device-width" />\r\n    <meta name="version" content="20161218" />\r\n    <!--googleon: all-->\r\n    <!-- InstanceBeginEditable name="metaElements" -->\r\n<title>Maine - Final-issuance Individual Facility Permits | NPDES Permits in New England | US EPA</title>\r\n<meta name="DC.description" content="EPA New England Issued NPDES Permits for Maine" />\r\n<meta name="keywords" content="npdes, national pollutant discharge elimination system, wastewater, discharge, stormwater, publicly owned treatment works facility, potw, water pollution control facility, wpcf, wastewater treatment facility, wwtf, wastewater treatment plant, wwtp, final permit, maine" />\r\n<meta name="DC.title" content="Maine - Final-issuance Individual Facility Permits" />\r\n<meta name="DC.Subject.epabrm" content="Manage Water Quality" />\r\n<meta name="DC.type" content="Collections &amp; Lists" />\r\n<meta name="DC.Subject.epachannel" content="Laws &amp; Regulations" />\r\n<meta http-equiv="Refresh" content="15;URL=https://www.epa.gov/npdes-permits/maine-final-individual-npdes-permits" />\r\n<!-- InstanceEndEditable -->\r\n    <!--googleoff: snippet-->\r\n    <meta name="DC.creator" content="US EPA,REG 01" />\r\n    <meta name="DC.language" content="en" />\r\n    <meta name="DC.date.created" content="2011-02-14" />\r\n    <meta name="DC.date.modified" content="2017-05-19" />\r\n    <!--googleoff: all-->\r\n    <link type="text/css" rel="stylesheet" href="../18f-files/a.css" media="all" />\r\n    <link type="text/css" rel="stylesheet" href="../18f-files/b.css" media="all" />\r\n    <link type="text/css" rel="stylesheet" href="../18f-files/c.css" media="all" />\r\n    <link type="text/css" rel="stylesheet" href="../18f-files/d.css" media="all" />\r\n    \r\n    <!--[if lt IE 9]><link type="text/css" rel="stylesheet" href="../18f-files/e-ie.css" media="all" /><![endif]-->\r\n    <link rel="alternate" type="application/atom+xml" title="EPA.gov All Press Releases" href="https://www.epa.gov/newsreleases/search/rss" />\r\n    <link rel="alternate" type="application/atom+xml" title="EPA.gov Headquarters Press Releases" href="https://www.epa.gov/newsreleases/search/rss/field_press_office/headquarters" />\r\n    <link rel="alternate" type="application/atom+xml" title="Greenversations, EPA\'s Blog" href="https://blog.epa.gov/blog/feed/" />\r\n    <!--[if lt IE 9]><script src="https://www.epa.gov/sites/all/themes/epa/js/html5.js"></script><![endif]-->\r\n    <link type="text/css" rel="stylesheet" href="../18f-files/f.css" media="all" />\r\n    \r\n</head>\r\n<body class="html not-front not-logged-in one-sidebar sidebar-first page-node page-node-2553 node-type-page og-context og-context-node og-context-node-851 section-aboutepa microsite" >\r\n\r\n    <!-- Google Tag Manager -->\r\n<noscript><iframe src="//www.googletagmanager.com/ns.html?id=GTM-L8ZB" height="0" width="0" style="display:none;visibility:hidden"></iframe></noscript>\r\n<script>(function(w,d,s,l,i){w[l]=w[l]||[];w[l].push({\'gtm.start\':new Date().getTime(),event:\'gtm.js\'});var f=d.getElementsByTagName(s)[0],j=d.createElement(s),dl=l!=\'dataLayer\'?\'&l=\'+l:\'\';j.async=true;j.src=\'//www.googletagmanager.com/gtm.js?id=\'+i+dl;f.parentNode.insertBefore(j,f);})(window,document,\'script\',\'dataLayer\',\'GTM-L8ZB\');</script>\r\n  <!-- End Google Tag Manager -->\r\n  <div class="skip-links"><a href="#main-content" class="skip-link element-invisible element-focusable">Jump to main content</a></div>\r\n  <header class="masthead clearfix" role="banner">\r\n    <img class="site-logo" src="https://www.epa.gov/sites/all/themes/epa/logo.png" alt="" />\r\n    <hgroup class="site-name-and-slogan">\r\n      <h1 class="site-name"><a href="https://www.epa.gov/" title="Go to the home page" rel="home"><span>US EPA</span></a></h1>\r\n      <div class="site-slogan">United States Environmental Protection Agency</div>\r\n    </hgroup>\r\n    <form class="epa-search" method="get" action="https://search.epa.gov/epasearch/epasearch">\r\n      <label class="element-hidden" for="search-box">Search</label>\r\n      <input class="form-text" placeholder="Search EPA.gov" name="querytext" id="search-box" value=""/>\r\n      <button class="epa-search-button" id="search-button" type="submit" title="Search">Search</button>\r\n      <input type="hidden" name="areaname" value="" />\r\n      <input type="hidden" name="areacontacts" value="" />\r\n      <input type="hidden" name="areasearchurl" value="" />\r\n      <input type="hidden" name="typeofsearch" value="epa" />\r\n      <input type="hidden" name="result_template" value="2col.ftl" />\r\n    </form>\r\n  </header>\r\n  <section id="main-content" class="main-content clearfix" role="main">\r\n  <h2 class="microsite-name">Region 1: EPA New England</h2>  \r\n    <div class="region-preface clearfix">\r\n    \r\n    <div id="block-pane-social-sharing" class="block block-pane block-pane-social-sharing">\r\n    \r\n    </div>\r\n    \r\n      <div id="block-pane-epa-web-area-connect" class="block block-pane contextual-links-region">\r\n        <ul class="menu utility-menu">\r\n          <li class="menu-item"><a href="https://www.epa.gov/aboutepa/forms/contacting-epa-new-england" class="menu-link contact-us">Contact Us</a></li>\r\n        </ul>\r\n      </div>\r\n    </div>\r\n    <div class="main-column clearfix">\r\n<!--googleon: all-->\r\n      <h1 class="page-title"><!-- InstanceBeginEditable name="PageName" -->Maine Final Individual NPDES Permits<!-- InstanceEndEditable --></h1>\r\n      <div class="panel-pane pane-node-content" >\r\n        <div class="pane-content">\r\n          <div class="node node-page clearfix view-mode-full"><!-- InstanceBeginEditable name="content" -->\r\n\r\n\r\n            <p>The Maine Final Individual NPDES Permits webpage has moved. This web address will expire soon.</p>\r\n            <p>You will be redirected in <span id="timeLeft">10</span> seconds to the new web address (<a href="https://www.epa.gov/npdes-permits/maine-final-individual-npdes-permits">https://www.epa.gov/npdes-permits/maine-final-individual-npdes-permits</a>).</p>\r\n            <p>Please update your bookmarks.</p>\r\n\r\n      <!-- InstanceEndEditable --></div>\r\n        </div>\r\n      </div>\r\n\r\n    <div id="block-pane-epa-web-area-footer" class="block block-pane block-pane-epa-web-area-footer">\r\n      \r\n        <p class="web-area-footer"><a href="https://www.epa.gov/aboutepa/forms/contacting-epa-new-england" class="contact-us">Contact Us</a> to ask a question, provide feedback, or report a problem.</p>  \r\n    </div>\r\n\r\n    <!--googleoff: all-->\r\n    </div>\r\n    \r\n    <div class="region-sidebar-first region-sidebar">  \r\n      <div id="block-og-menu-og-single-menu-block" class="block block-og-menu block-og-menu-og-single-menu-block">\r\n      <noscript><h3 class="whiteText" style="text-align:center; padding-top:20px;">This page requires Javascript. Please enable it in your browser settings.</h3></noscript>\r\n        <script type="text/javascript" src="../18f-files/r1-left-nav.js"></script>\r\n        </div>\r\n    </div>\r\n    \r\n</section>\r\n  \r\n  <nav class="nav simple-nav simple-main-nav" role="navigation">\r\n    <div class="nav__inner">\r\n        <h2 class="element-invisible">Main menu</h2>    \r\n        <ul class="menu">\r\n          <li class="menu-item" id="main-menu-enviro-topics"><a href="https://www.epa.gov/environmental-topics" title="Learn about EPA&#039;s environmental topics to help protect the environment in your home, workplace, and community and EPA&#039;s research mission is to conduct leading-edge research and foster the sound use of science and technology." class="menu-link">Environmental Topics</a>\r\n          </li>\r\n            <li class="menu-item" id="main-menu-laws-regs"><a href="https://www.epa.gov/laws-regulations" title="Laws written by Congress provide the authority for EPA to write regulations. Regulations explain the technical, operational, and legal details necessary to implement laws." class="menu-link">Laws &amp; Regulations</a>\r\n            </li>\r\n          <li class="menu-item" id="main-menu-about-epa"><a href="https://www.epa.gov/aboutepa" title="Learn more about: our mission and what we do, how we are organized, and our history." class="menu-link">About EPA</a>\r\n          </li>\r\n        </ul>\r\n\r\n    </div>\r\n  </nav>\r\n  \r\n<footer class="main-footer clearfix" role="contentinfo">\r\n    <div class="main-footer__inner">\r\n        <div class="region-footer">\r\n            <div id="block-pane-epa-global-footer" class="block block-pane  block-pane-epa-global-footer">\r\n                <div class="row cols-3">\r\n                    <div class="col size-1of3">\r\n                        <div class="col__title">Discover.</div>\r\n                        <ul class="menu">\r\n                          <li><a href="https://www.epa.gov/accessibility">Accessibility</a></li>\r\n                          <li><a href="https://www.epa.gov/aboutepa/administrator-gina-mccarthy">EPA Administrator</a></li>\r\n                          <li><a href="https://www.epa.gov/planandbudget">Budget &amp; Performance</a></li>\r\n                          <li><a href="https://www.epa.gov/contracts">Contracting</a></li>\r\n                          <li><a href="https://www.epa.gov/home/grants-and-other-funding-opportunities">Grants</a></li>\r\n                          <li><a href="https://www.epa.gov/ocr/whistleblower-protections-epa-and-how-they-relate-non-disclosure-agreements-signed-epa-employees">No FEAR Act Data</a></li>\r\n                          <li><a href="https://www.epa.gov/home/privacy-and-security-notice">Privacy and Security</a></li>\r\n                        </ul>\r\n                    </div>\r\n                    \r\n                    <div class="col size-1of3">\r\n                        <div class="col__title">Connect.</div>\r\n                        <ul class="menu">\r\n                          <li><a href="https://www.data.gov/">Data.gov</a></li>\r\n                          <li><a href="https://www.epa.gov/office-inspector-general/about-epas-office-inspector-general">Inspector General</a></li>\r\n                          <li><a href="https://www.epa.gov/careers">Jobs</a></li>\r\n                          <li><a href="https://www.epa.gov/newsroom">Newsroom</a></li>\r\n                          <li><a href="https://www.whitehouse.gov/open">Open Government</a></li>\r\n                          <li><a href="http://www.regulations.gov/">Regulations.gov</a></li>\r\n                          <li><a href="https://www.epa.gov/newsroom/email-subscriptions">Subscribe</a></li>\r\n                          <li><a href="https://www.usa.gov/">USA.gov</a></li>\r\n                          <li><a href="https://www.whitehouse.gov/">White House</a></li>\r\n                        </ul>\r\n                    </div>\r\n                    \r\n                    <div class="col size-1of3">\r\n                        <div class="col__title">Ask.</div>\r\n                        <ul class="menu">\r\n                          <li><a href="https://www.epa.gov/home/forms/contact-us">Contact Us</a></li>\r\n                          <li><a href="https://www.epa.gov/home/epa-hotlines">Hotlines</a></li>\r\n                          <li><a href="https://www.epa.gov/foia">FOIA Requests</a></li>\r\n                          <li><a href="https://www.epa.gov/home/frequent-questions-specific-epa-programstopics">Frequent Questions</a></li>\r\n                        </ul>\r\n                        \r\n                        <div class="col__title">Follow.</div>\r\n                        <ul class="social-menu">\r\n                          <li><a class="menu-link social-facebook" href="https://www.facebook.com/EPA">Facebook</a></li>\r\n                          <li><a class="menu-link social-twitter" href="https://twitter.com/epa">Twitter</a></li>\r\n                          <li><a class="menu-link social-youtube" href="https://www.youtube.com/user/USEPAgov">YouTube</a></li>\r\n                          <li><a class="menu-link social-flickr" href="https://www.flickr.com/photos/usepagov">Flickr</a></li>\r\n                          <li><a class="menu-link social-instagram" href="https://www.instagram.com/epagov">Instagram</a></li>\r\n                        </ul>\r\n                        \r\n                        <p class="last-updated">Last updated on <!-- #BeginDate format:Am1 -->August 25, 2017<!-- #EndDate --></p>\r\n                    </div>\r\n                </div>  \r\n            </div>\r\n        </div>\r\n    </div>\r\n</footer>   \r\n\r\n<script type="text/javascript" src="https://www.epa.gov/sites/all/libraries/template/jquery.js"></script>\r\n<script type="text/javascript" src="../18f-files/template-js.js"></script>\r\n<script type="text/javascript" src="https://www.epa.gov/sites/all/modules/custom/epa_core/js/alert.js"></script>  \r\n<script type="text/javascript" src="../18f-files/append-submenu.js"></script>  \r\n<script type="text/javascript" src="https://www3.epa.gov/region1/js/slimbox2/js/slimbox2.js"></script>\r\n<script type="text/javascript">\r\n(function ($){\r\n\t$(\'head\').append(\'<link rel="stylesheet" type="text/css" href="https://www3.epa.gov/region1/js/slimbox2/css/slimbox2.css" />\');\r\n})(jQuery);\r\n</script>\r\n<!-- InstanceBeginEditable name="scripts" --> \r\n<script type="text/javascript">\r\n(function ($){\r\n\r\n    window.setInterval(function() {\r\n    var timeLeft = $(\'#timeLeft\').html();                                \r\n        if(parseInt(timeLeft) == 0){\r\n                window.location= (\'https://www.epa.gov/npdes-permits/maine-final-individual-npdes-permits\');                 \r\n        }else{              \r\n            $(\'#timeLeft\').html(parseInt(timeLeft) - parseInt(1));\r\n        }\r\n    }, 1000); \r\n\r\n})(jQuery);\r\n</script>\r\n<style>\r\n#timeLeft { color:red; font-weight: bold; }\r\n</style>\r\n<!-- InstanceEndEditable --> \r\n<!--[if lt IE 9]><script src="https://www.epa.gov/sites/all/themes/epa/js/ie.js"></script><![endif]-->\r\n</body>\r\n<!-- InstanceEnd --></html>\r\n'
p4
aS'<!DOCTYPE html>\r\n<!--[if IEMobile 7]><html class="iem7 no-js" lang="en" dir="ltr"><![endif]-->\r\n<!--[if lt IE 7]><html class="lt-ie9 lt-ie8 lt-ie7 no-js" lang="en" dir="ltr"><![endif]-->\r\n<!--[if (IE 7)&(!IEMobile)]><html class="lt-ie9 lt-ie8 no-js" lang="en" dir="ltr"><![endif]-->\r\n<!--[if IE 8]><html class="lt-ie9 no-js" lang="en" dir="ltr"><![endif]-->\r\n<!--[if (gt IE 8)|(gt IEMobile 7)]><!--> <html class="no-js not-oldie" lang="en" dir="ltr"><!-- InstanceBegin template="/Templates/1epane-18f.dwt" codeOutsideHTMLIsLocked="false" -->\r\n <!--<![endif]-->\r\n<head>\r\n    <meta charset="utf-8" />\r\n    <meta http-equiv="X-UA-Compatible" content="IE=edge" />\r\n    <meta name="HandheldFriendly" content="true" />\r\n    <link rel="shortcut icon" href="https://www.epa.gov/sites/all/themes/epa/favicon.ico" type="image/vnd.microsoft.icon" />\r\n    <meta name="MobileOptimized" content="width" />\r\n    <meta http-equiv="cleartype" content="on" />\r\n    <meta http-equiv="ImageToolbar" content="false" />\r\n    <meta name="viewport" content="width=device-width" />\r\n    <meta name="version" content="20161218" />\r\n    <!--googleon: all-->\r\n    <!-- InstanceBeginEditable name="metaElements" -->\r\n<title>New Hampshire Draft Individual NPDES Permits | NPDES Permits in New England | US EPA</title>\r\n<meta name="DC.description" content="EPA New England Issued Draft NPDES Permits for New Hampshire" />\r\n<meta name="keywords" content="npdes, national pollutant discharge elimination system, wastewater, discharge, stormwater, publicly owned treatment works facility, potw, water pollution control facility, wpcf, wastewater treatment facility, wwtf, wastewater treatment plant, wwtp, draft permit, new hampshire" />\r\n<meta name="DC.title" content="New Hampshire Draft Individual NPDES Permits" />\r\n<meta name="DC.Subject.epabrm" content="Manage Water Quality" />\r\n<meta name="DC.type" content="Announcements &amp; Schedules" />\r\n<meta name="DC.Subject.epachannel" content="Laws &amp; Regulations" />\r\n<meta http-equiv="Refresh" content="15;URL=https://www.epa.gov/npdes-permits/new-hampshire-draft-individual-npdes-permits" />\r\n<!-- InstanceEndEditable -->\r\n    <!--googleoff: snippet-->\r\n    <meta name="DC.creator" content="US EPA,REG 01" />\r\n    <meta name="DC.language" content="en" />\r\n    <meta name="DC.date.created" content="2011-02-14" />\r\n    <meta name="DC.date.modified" content="2017-05-19" />\r\n    <!--googleoff: all-->\r\n    <link type="text/css" rel="stylesheet" href="../18f-files/a.css" media="all" />\r\n    <link type="text/css" rel="stylesheet" href="../18f-files/b.css" media="all" />\r\n    <link type="text/css" rel="stylesheet" href="../18f-files/c.css" media="all" />\r\n    <link type="text/css" rel="stylesheet" href="../18f-files/d.css" media="all" />\r\n    \r\n    <!--[if lt IE 9]><link type="text/css" rel="stylesheet" href="../18f-files/e-ie.css" media="all" /><![endif]-->\r\n    <link rel="alternate" type="application/atom+xml" title="EPA.gov All Press Releases" href="https://www.epa.gov/newsreleases/search/rss" />\r\n    <link rel="alternate" type="application/atom+xml" title="EPA.gov Headquarters Press Releases" href="https://www.epa.gov/newsreleases/search/rss/field_press_office/headquarters" />\r\n    <link rel="alternate" type="application/atom+xml" title="Greenversations, EPA\'s Blog" href="https://blog.epa.gov/blog/feed/" />\r\n    <!--[if lt IE 9]><script src="https://www.epa.gov/sites/all/themes/epa/js/html5.js"></script><![endif]-->\r\n    <link type="text/css" rel="stylesheet" href="../18f-files/f.css" media="all" />\r\n    \r\n</head>\r\n<body class="html not-front not-logged-in one-sidebar sidebar-first page-node page-node-2553 node-type-page og-context og-context-node og-context-node-851 section-aboutepa microsite" >\r\n\r\n    <!-- Google Tag Manager -->\r\n<noscript><iframe src="//www.googletagmanager.com/ns.html?id=GTM-L8ZB" height="0" width="0" style="display:none;visibility:hidden"></iframe></noscript>\r\n<script>(function(w,d,s,l,i){w[l]=w[l]||[];w[l].push({\'gtm.start\':new Date().getTime(),event:\'gtm.js\'});var f=d.getElementsByTagName(s)[0],j=d.createElement(s),dl=l!=\'dataLayer\'?\'&l=\'+l:\'\';j.async=true;j.src=\'//www.googletagmanager.com/gtm.js?id=\'+i+dl;f.parentNode.insertBefore(j,f);})(window,document,\'script\',\'dataLayer\',\'GTM-L8ZB\');</script>\r\n  <!-- End Google Tag Manager -->\r\n  <div class="skip-links"><a href="#main-content" class="skip-link element-invisible element-focusable">Jump to main content</a></div>\r\n  <header class="masthead clearfix" role="banner">\r\n    <img class="site-logo" src="https://www.epa.gov/sites/all/themes/epa/logo.png" alt="" />\r\n    <hgroup class="site-name-and-slogan">\r\n      <h1 class="site-name"><a href="https://www.epa.gov/" title="Go to the home page" rel="home"><span>US EPA</span></a></h1>\r\n      <div class="site-slogan">United States Environmental Protection Agency</div>\r\n    </hgroup>\r\n    <form class="epa-search" method="get" action="https://search.epa.gov/epasearch/epasearch">\r\n      <label class="element-hidden" for="search-box">Search</label>\r\n      <input class="form-text" placeholder="Search EPA.gov" name="querytext" id="search-box" value=""/>\r\n      <button class="epa-search-button" id="search-button" type="submit" title="Search">Search</button>\r\n      <input type="hidden" name="areaname" value="" />\r\n      <input type="hidden" name="areacontacts" value="" />\r\n      <input type="hidden" name="areasearchurl" value="" />\r\n      <input type="hidden" name="typeofsearch" value="epa" />\r\n      <input type="hidden" name="result_template" value="2col.ftl" />\r\n    </form>\r\n  </header>\r\n  <section id="main-content" class="main-content clearfix" role="main">\r\n  <h2 class="microsite-name">Region 1: EPA New England</h2>  \r\n    <div class="region-preface clearfix">\r\n    \r\n    <div id="block-pane-social-sharing" class="block block-pane block-pane-social-sharing">\r\n    \r\n    </div>\r\n    \r\n      <div id="block-pane-epa-web-area-connect" class="block block-pane contextual-links-region">\r\n        <ul class="menu utility-menu">\r\n          <li class="menu-item"><a href="https://www.epa.gov/aboutepa/forms/contacting-epa-new-england" class="menu-link contact-us">Contact Us</a></li>\r\n        </ul>\r\n      </div>\r\n    </div>\r\n    <div class="main-column clearfix">\r\n<!--googleon: all-->\r\n      <h1 class="page-title"><!-- InstanceBeginEditable name="PageName" -->New Hampshire Draft Individual NPDES Permits<!-- InstanceEndEditable --></h1>\r\n      <div class="panel-pane pane-node-content" >\r\n        <div class="pane-content">\r\n          <div class="node node-page clearfix view-mode-full"><!-- InstanceBeginEditable name="content" -->\r\n\r\n\r\n            <p>The New Hampshire Draft Individual NPDES Permits webpage has moved. This web address will expire soon.</p>\r\n            <p>You will be redirected in <span id="timeLeft">10</span> seconds to the new web address (<a href="https://www.epa.gov/npdes-permits/new-hampshire-draft-individual-npdes-permits">https://www.epa.gov/npdes-permits/new-hampshire-draft-individual-npdes-permits</a>).</p>\r\n            <p>Please update your bookmarks.</p>\r\n\r\n      <!-- InstanceEndEditable --></div>\r\n        </div>\r\n      </div>\r\n\r\n    <div id="block-pane-epa-web-area-footer" class="block block-pane block-pane-epa-web-area-footer">\r\n      \r\n        <p class="web-area-footer"><a href="https://www.epa.gov/aboutepa/forms/contacting-epa-new-england" class="contact-us">Contact Us</a> to ask a question, provide feedback, or report a problem.</p>  \r\n    </div>\r\n\r\n    <!--googleoff: all-->\r\n    </div>\r\n    \r\n    <div class="region-sidebar-first region-sidebar">  \r\n      <div id="block-og-menu-og-single-menu-block" class="block block-og-menu block-og-menu-og-single-menu-block">\r\n      <noscript><h3 class="whiteText" style="text-align:center; padding-top:20px;">This page requires Javascript. Please enable it in your browser settings.</h3></noscript>\r\n        <script type="text/javascript" src="../18f-files/r1-left-nav.js"></script>\r\n        </div>\r\n    </div>\r\n    \r\n</section>\r\n  \r\n  <nav class="nav simple-nav simple-main-nav" role="navigation">\r\n    <div class="nav__inner">\r\n        <h2 class="element-invisible">Main menu</h2>    \r\n        <ul class="menu">\r\n          <li class="menu-item" id="main-menu-enviro-topics"><a href="https://www.epa.gov/environmental-topics" title="Learn about EPA&#039;s environmental topics to help protect the environment in your home, workplace, and community and EPA&#039;s research mission is to conduct leading-edge research and foster the sound use of science and technology." class="menu-link">Environmental Topics</a>\r\n          </li>\r\n            <li class="menu-item" id="main-menu-laws-regs"><a href="https://www.epa.gov/laws-regulations" title="Laws written by Congress provide the authority for EPA to write regulations. Regulations explain the technical, operational, and legal details necessary to implement laws." class="menu-link">Laws &amp; Regulations</a>\r\n            </li>\r\n          <li class="menu-item" id="main-menu-about-epa"><a href="https://www.epa.gov/aboutepa" title="Learn more about: our mission and what we do, how we are organized, and our history." class="menu-link">About EPA</a>\r\n          </li>\r\n        </ul>\r\n\r\n    </div>\r\n  </nav>\r\n  \r\n<footer class="main-footer clearfix" role="contentinfo">\r\n    <div class="main-footer__inner">\r\n        <div class="region-footer">\r\n            <div id="block-pane-epa-global-footer" class="block block-pane  block-pane-epa-global-footer">\r\n                <div class="row cols-3">\r\n                    <div class="col size-1of3">\r\n                        <div class="col__title">Discover.</div>\r\n                        <ul class="menu">\r\n                          <li><a href="https://www.epa.gov/accessibility">Accessibility</a></li>\r\n                          <li><a href="https://www.epa.gov/aboutepa/administrator-gina-mccarthy">EPA Administrator</a></li>\r\n                          <li><a href="https://www.epa.gov/planandbudget">Budget &amp; Performance</a></li>\r\n                          <li><a href="https://www.epa.gov/contracts">Contracting</a></li>\r\n                          <li><a href="https://www.epa.gov/home/grants-and-other-funding-opportunities">Grants</a></li>\r\n                          <li><a href="https://www.epa.gov/ocr/whistleblower-protections-epa-and-how-they-relate-non-disclosure-agreements-signed-epa-employees">No FEAR Act Data</a></li>\r\n                          <li><a href="https://www.epa.gov/home/privacy-and-security-notice">Privacy and Security</a></li>\r\n                        </ul>\r\n                    </div>\r\n                    \r\n                    <div class="col size-1of3">\r\n                        <div class="col__title">Connect.</div>\r\n                        <ul class="menu">\r\n                          <li><a href="https://www.data.gov/">Data.gov</a></li>\r\n                          <li><a href="https://www.epa.gov/office-inspector-general/about-epas-office-inspector-general">Inspector General</a></li>\r\n                          <li><a href="https://www.epa.gov/careers">Jobs</a></li>\r\n                          <li><a href="https://www.epa.gov/newsroom">Newsroom</a></li>\r\n                          <li><a href="https://www.whitehouse.gov/open">Open Government</a></li>\r\n                          <li><a href="http://www.regulations.gov/">Regulations.gov</a></li>\r\n                          <li><a href="https://www.epa.gov/newsroom/email-subscriptions">Subscribe</a></li>\r\n                          <li><a href="https://www.usa.gov/">USA.gov</a></li>\r\n                          <li><a href="https://www.whitehouse.gov/">White House</a></li>\r\n                        </ul>\r\n                    </div>\r\n                    \r\n                    <div class="col size-1of3">\r\n                        <div class="col__title">Ask.</div>\r\n                        <ul class="menu">\r\n                          <li><a href="https://www.epa.gov/home/forms/contact-us">Contact Us</a></li>\r\n                          <li><a href="https://www.epa.gov/home/epa-hotlines">Hotlines</a></li>\r\n                          <li><a href="https://www.epa.gov/foia">FOIA Requests</a></li>\r\n                          <li><a href="https://www.epa.gov/home/frequent-questions-specific-epa-programstopics">Frequent Questions</a></li>\r\n                        </ul>\r\n                        \r\n                        <div class="col__title">Follow.</div>\r\n                        <ul class="social-menu">\r\n                          <li><a class="menu-link social-facebook" href="https://www.facebook.com/EPA">Facebook</a></li>\r\n                          <li><a class="menu-link social-twitter" href="https://twitter.com/epa">Twitter</a></li>\r\n                          <li><a class="menu-link social-youtube" href="https://www.youtube.com/user/USEPAgov">YouTube</a></li>\r\n                          <li><a class="menu-link social-flickr" href="https://www.flickr.com/photos/usepagov">Flickr</a></li>\r\n                          <li><a class="menu-link social-instagram" href="https://www.instagram.com/epagov">Instagram</a></li>\r\n                        </ul>\r\n                        \r\n                        <p class="last-updated">Last updated on <!-- #BeginDate format:Am1 -->August 25, 2017<!-- #EndDate --></p>\r\n                    </div>\r\n                </div>  \r\n            </div>\r\n        </div>\r\n    </div>\r\n</footer>   \r\n\r\n<script type="text/javascript" src="https://www.epa.gov/sites/all/libraries/template/jquery.js"></script>\r\n<script type="text/javascript" src="../18f-files/template-js.js"></script>\r\n<script type="text/javascript" src="https://www.epa.gov/sites/all/modules/custom/epa_core/js/alert.js"></script>  \r\n<script type="text/javascript" src="../18f-files/append-submenu.js"></script>  \r\n<script type="text/javascript" src="https://www3.epa.gov/region1/js/slimbox2/js/slimbox2.js"></script>\r\n<script type="text/javascript">\r\n(function ($){\r\n\t$(\'head\').append(\'<link rel="stylesheet" type="text/css" href="https://www3.epa.gov/region1/js/slimbox2/css/slimbox2.css" />\');\r\n})(jQuery);\r\n</script>\r\n<!-- InstanceBeginEditable name="scripts" --> \r\n<script type="text/javascript">\r\n(function ($){\r\n\r\n    window.setInterval(function() {\r\n    var timeLeft = $(\'#timeLeft\').html();                                \r\n        if(parseInt(timeLeft) == 0){\r\n                window.location= (\'https://www.epa.gov/npdes-permits/new-hampshire-draft-individual-npdes-permits\');                 \r\n        }else{              \r\n            $(\'#timeLeft\').html(parseInt(timeLeft) - parseInt(1));\r\n        }\r\n    }, 1000); \r\n\r\n})(jQuery);\r\n</script>\r\n<style>\r\n#timeLeft { color:red; font-weight: bold; }\r\n</style>\r\n<!-- InstanceEndEditable --> \r\n<!--[if lt IE 9]><script src="https://www.epa.gov/sites/all/themes/epa/js/ie.js"></script><![endif]-->\r\n</body>\r\n<!-- InstanceEnd --></html>\r\n'
p5
aS'<!DOCTYPE html>\r\n<!--[if IEMobile 7]><html class="iem7 no-js" lang="en" dir="ltr"><![endif]-->\r\n<!--[if lt IE 7]><html class="lt-ie9 lt-ie8 lt-ie7 no-js" lang="en" dir="ltr"><![endif]-->\r\n<!--[if (IE 7)&(!IEMobile)]><html class="lt-ie9 lt-ie8 no-js" lang="en" dir="ltr"><![endif]-->\r\n<!--[if IE 8]><html class="lt-ie9 no-js" lang="en" dir="ltr"><![endif]-->\r\n<!--[if (gt IE 8)|(gt IEMobile 7)]><!--> <html class="no-js not-oldie" lang="en" dir="ltr"><!-- InstanceBegin template="/Templates/1epane-18f.dwt" codeOutsideHTMLIsLocked="false" -->\r\n <!--<![endif]-->\r\n<head>\r\n    <meta charset="utf-8" />\r\n    <meta http-equiv="X-UA-Compatible" content="IE=edge" />\r\n    <meta name="HandheldFriendly" content="true" />\r\n    <link rel="shortcut icon" href="https://www.epa.gov/sites/all/themes/epa/favicon.ico" type="image/vnd.microsoft.icon" />\r\n    <meta name="MobileOptimized" content="width" />\r\n    <meta http-equiv="cleartype" content="on" />\r\n    <meta http-equiv="ImageToolbar" content="false" />\r\n    <meta name="viewport" content="width=device-width" />\r\n    <meta name="version" content="20161218" />\r\n    <!--googleon: all-->\r\n    <!-- InstanceBeginEditable name="metaElements" -->\r\n<title>New Hampshire - Final-issuance Individual Facility Permits | NPDES Permits in New England | US EPA</title>\r\n<meta name="DC.description" content="EPA New England Issued NPDES Permits for New Hampshire" />\r\n<meta name="keywords" content="npdes, national pollutant discharge elimination system, wastewater, discharge, stormwater, publicly owned treatment works facility, potw, water pollution control facility, wpcf, wastewater treatment facility, wwtf, wastewater treatment plant, wwtp, final permit, new hampshire" />\r\n<meta name="DC.title" content="New Hampshire - Final-issuance Individual Facility Permits" />\r\n<meta name="DC.Subject.epabrm" content="Manage Water Quality" />\r\n<meta name="DC.type" content="Collections &amp; Lists" />\r\n<meta name="DC.Subject.epachannel" content="Laws &amp; Regulations" />\r\n<meta http-equiv="Refresh" content="15;URL=https://www.epa.gov/npdes-permits/new-hampshire-final-individual-npdes-permits" />\r\n<!-- InstanceEndEditable -->\r\n    <!--googleoff: snippet-->\r\n    <meta name="DC.creator" content="US EPA,REG 01" />\r\n    <meta name="DC.language" content="en" />\r\n    <meta name="DC.date.created" content="2011-02-14" />\r\n    <meta name="DC.date.modified" content="2017-05-19" />\r\n    <!--googleoff: all-->\r\n    <link type="text/css" rel="stylesheet" href="../18f-files/a.css" media="all" />\r\n    <link type="text/css" rel="stylesheet" href="../18f-files/b.css" media="all" />\r\n    <link type="text/css" rel="stylesheet" href="../18f-files/c.css" media="all" />\r\n    <link type="text/css" rel="stylesheet" href="../18f-files/d.css" media="all" />\r\n    \r\n    <!--[if lt IE 9]><link type="text/css" rel="stylesheet" href="../18f-files/e-ie.css" media="all" /><![endif]-->\r\n    <link rel="alternate" type="application/atom+xml" title="EPA.gov All Press Releases" href="https://www.epa.gov/newsreleases/search/rss" />\r\n    <link rel="alternate" type="application/atom+xml" title="EPA.gov Headquarters Press Releases" href="https://www.epa.gov/newsreleases/search/rss/field_press_office/headquarters" />\r\n    <link rel="alternate" type="application/atom+xml" title="Greenversations, EPA\'s Blog" href="https://blog.epa.gov/blog/feed/" />\r\n    <!--[if lt IE 9]><script src="https://www.epa.gov/sites/all/themes/epa/js/html5.js"></script><![endif]-->\r\n    <link type="text/css" rel="stylesheet" href="../18f-files/f.css" media="all" />\r\n    \r\n</head>\r\n<body class="html not-front not-logged-in one-sidebar sidebar-first page-node page-node-2553 node-type-page og-context og-context-node og-context-node-851 section-aboutepa microsite" >\r\n\r\n    <!-- Google Tag Manager -->\r\n<noscript><iframe src="//www.googletagmanager.com/ns.html?id=GTM-L8ZB" height="0" width="0" style="display:none;visibility:hidden"></iframe></noscript>\r\n<script>(function(w,d,s,l,i){w[l]=w[l]||[];w[l].push({\'gtm.start\':new Date().getTime(),event:\'gtm.js\'});var f=d.getElementsByTagName(s)[0],j=d.createElement(s),dl=l!=\'dataLayer\'?\'&l=\'+l:\'\';j.async=true;j.src=\'//www.googletagmanager.com/gtm.js?id=\'+i+dl;f.parentNode.insertBefore(j,f);})(window,document,\'script\',\'dataLayer\',\'GTM-L8ZB\');</script>\r\n  <!-- End Google Tag Manager -->\r\n  <div class="skip-links"><a href="#main-content" class="skip-link element-invisible element-focusable">Jump to main content</a></div>\r\n  <header class="masthead clearfix" role="banner">\r\n    <img class="site-logo" src="https://www.epa.gov/sites/all/themes/epa/logo.png" alt="" />\r\n    <hgroup class="site-name-and-slogan">\r\n      <h1 class="site-name"><a href="https://www.epa.gov/" title="Go to the home page" rel="home"><span>US EPA</span></a></h1>\r\n      <div class="site-slogan">United States Environmental Protection Agency</div>\r\n    </hgroup>\r\n    <form class="epa-search" method="get" action="https://search.epa.gov/epasearch/epasearch">\r\n      <label class="element-hidden" for="search-box">Search</label>\r\n      <input class="form-text" placeholder="Search EPA.gov" name="querytext" id="search-box" value=""/>\r\n      <button class="epa-search-button" id="search-button" type="submit" title="Search">Search</button>\r\n      <input type="hidden" name="areaname" value="" />\r\n      <input type="hidden" name="areacontacts" value="" />\r\n      <input type="hidden" name="areasearchurl" value="" />\r\n      <input type="hidden" name="typeofsearch" value="epa" />\r\n      <input type="hidden" name="result_template" value="2col.ftl" />\r\n    </form>\r\n  </header>\r\n  <section id="main-content" class="main-content clearfix" role="main">\r\n  <h2 class="microsite-name">Region 1: EPA New England</h2>  \r\n    <div class="region-preface clearfix">\r\n    \r\n    <div id="block-pane-social-sharing" class="block block-pane block-pane-social-sharing">\r\n    \r\n    </div>\r\n    \r\n      <div id="block-pane-epa-web-area-connect" class="block block-pane contextual-links-region">\r\n        <ul class="menu utility-menu">\r\n          <li class="menu-item"><a href="https://www.epa.gov/aboutepa/forms/contacting-epa-new-england" class="menu-link contact-us">Contact Us</a></li>\r\n        </ul>\r\n      </div>\r\n    </div>\r\n    <div class="main-column clearfix">\r\n<!--googleon: all-->\r\n      <h1 class="page-title"><!-- InstanceBeginEditable name="PageName" -->New Hampshire Final Individual NPDES Permits<!-- InstanceEndEditable --></h1>\r\n      <div class="panel-pane pane-node-content" >\r\n        <div class="pane-content">\r\n          <div class="node node-page clearfix view-mode-full"><!-- InstanceBeginEditable name="content" -->\r\n\r\n\r\n            <p>The New Hampshire Final Individual NPDES Permits webpage has moved. This web address will expire soon.</p>\r\n            <p>You will be redirected in <span id="timeLeft">10</span> seconds to the new web address (<a href="https://www.epa.gov/npdes-permits/new-hampshire-final-individual-npdes-permits">https://www.epa.gov/npdes-permits/new-hampshire-final-individual-npdes-permits</a>).</p>\r\n            <p>Please update your bookmarks.</p>\r\n\r\n      <!-- InstanceEndEditable --></div>\r\n        </div>\r\n      </div>\r\n\r\n    <div id="block-pane-epa-web-area-footer" class="block block-pane block-pane-epa-web-area-footer">\r\n      \r\n        <p class="web-area-footer"><a href="https://www.epa.gov/aboutepa/forms/contacting-epa-new-england" class="contact-us">Contact Us</a> to ask a question, provide feedback, or report a problem.</p>  \r\n    </div>\r\n\r\n    <!--googleoff: all-->\r\n    </div>\r\n    \r\n    <div class="region-sidebar-first region-sidebar">  \r\n      <div id="block-og-menu-og-single-menu-block" class="block block-og-menu block-og-menu-og-single-menu-block">\r\n      <noscript><h3 class="whiteText" style="text-align:center; padding-top:20px;">This page requires Javascript. Please enable it in your browser settings.</h3></noscript>\r\n        <script type="text/javascript" src="../18f-files/r1-left-nav.js"></script>\r\n        </div>\r\n    </div>\r\n    \r\n</section>\r\n  \r\n  <nav class="nav simple-nav simple-main-nav" role="navigation">\r\n    <div class="nav__inner">\r\n        <h2 class="element-invisible">Main menu</h2>    \r\n        <ul class="menu">\r\n          <li class="menu-item" id="main-menu-enviro-topics"><a href="https://www.epa.gov/environmental-topics" title="Learn about EPA&#039;s environmental topics to help protect the environment in your home, workplace, and community and EPA&#039;s research mission is to conduct leading-edge research and foster the sound use of science and technology." class="menu-link">Environmental Topics</a>\r\n          </li>\r\n            <li class="menu-item" id="main-menu-laws-regs"><a href="https://www.epa.gov/laws-regulations" title="Laws written by Congress provide the authority for EPA to write regulations. Regulations explain the technical, operational, and legal details necessary to implement laws." class="menu-link">Laws &amp; Regulations</a>\r\n            </li>\r\n          <li class="menu-item" id="main-menu-about-epa"><a href="https://www.epa.gov/aboutepa" title="Learn more about: our mission and what we do, how we are organized, and our history." class="menu-link">About EPA</a>\r\n          </li>\r\n        </ul>\r\n\r\n    </div>\r\n  </nav>\r\n  \r\n<footer class="main-footer clearfix" role="contentinfo">\r\n    <div class="main-footer__inner">\r\n        <div class="region-footer">\r\n            <div id="block-pane-epa-global-footer" class="block block-pane  block-pane-epa-global-footer">\r\n                <div class="row cols-3">\r\n                    <div class="col size-1of3">\r\n                        <div class="col__title">Discover.</div>\r\n                        <ul class="menu">\r\n                          <li><a href="https://www.epa.gov/accessibility">Accessibility</a></li>\r\n                          <li><a href="https://www.epa.gov/aboutepa/administrator-gina-mccarthy">EPA Administrator</a></li>\r\n                          <li><a href="https://www.epa.gov/planandbudget">Budget &amp; Performance</a></li>\r\n                          <li><a href="https://www.epa.gov/contracts">Contracting</a></li>\r\n                          <li><a href="https://www.epa.gov/home/grants-and-other-funding-opportunities">Grants</a></li>\r\n                          <li><a href="https://www.epa.gov/ocr/whistleblower-protections-epa-and-how-they-relate-non-disclosure-agreements-signed-epa-employees">No FEAR Act Data</a></li>\r\n                          <li><a href="https://www.epa.gov/home/privacy-and-security-notice">Privacy and Security</a></li>\r\n                        </ul>\r\n                    </div>\r\n                    \r\n                    <div class="col size-1of3">\r\n                        <div class="col__title">Connect.</div>\r\n                        <ul class="menu">\r\n                          <li><a href="https://www.data.gov/">Data.gov</a></li>\r\n                          <li><a href="https://www.epa.gov/office-inspector-general/about-epas-office-inspector-general">Inspector General</a></li>\r\n                          <li><a href="https://www.epa.gov/careers">Jobs</a></li>\r\n                          <li><a href="https://www.epa.gov/newsroom">Newsroom</a></li>\r\n                          <li><a href="https://www.whitehouse.gov/open">Open Government</a></li>\r\n                          <li><a href="http://www.regulations.gov/">Regulations.gov</a></li>\r\n                          <li><a href="https://www.epa.gov/newsroom/email-subscriptions">Subscribe</a></li>\r\n                          <li><a href="https://www.usa.gov/">USA.gov</a></li>\r\n                          <li><a href="https://www.whitehouse.gov/">White House</a></li>\r\n                        </ul>\r\n                    </div>\r\n                    \r\n                    <div class="col size-1of3">\r\n                        <div class="col__title">Ask.</div>\r\n                        <ul class="menu">\r\n                          <li><a href="https://www.epa.gov/home/forms/contact-us">Contact Us</a></li>\r\n                          <li><a href="https://www.epa.gov/home/epa-hotlines">Hotlines</a></li>\r\n                          <li><a href="https://www.epa.gov/foia">FOIA Requests</a></li>\r\n                          <li><a href="https://www.epa.gov/home/frequent-questions-specific-epa-programstopics">Frequent Questions</a></li>\r\n                        </ul>\r\n                        \r\n                        <div class="col__title">Follow.</div>\r\n                        <ul class="social-menu">\r\n                          <li><a class="menu-link social-facebook" href="https://www.facebook.com/EPA">Facebook</a></li>\r\n                          <li><a class="menu-link social-twitter" href="https://twitter.com/epa">Twitter</a></li>\r\n                          <li><a class="menu-link social-youtube" href="https://www.youtube.com/user/USEPAgov">YouTube</a></li>\r\n                          <li><a class="menu-link social-flickr" href="https://www.flickr.com/photos/usepagov">Flickr</a></li>\r\n                          <li><a class="menu-link social-instagram" href="https://www.instagram.com/epagov">Instagram</a></li>\r\n                        </ul>\r\n                        \r\n                        <p class="last-updated">Last updated on <!-- #BeginDate format:Am1 -->August 25, 2017<!-- #EndDate --></p>\r\n                    </div>\r\n                </div>  \r\n            </div>\r\n        </div>\r\n    </div>\r\n</footer>   \r\n\r\n<script type="text/javascript" src="https://www.epa.gov/sites/all/libraries/template/jquery.js"></script>\r\n<script type="text/javascript" src="../18f-files/template-js.js"></script>\r\n<script type="text/javascript" src="https://www.epa.gov/sites/all/modules/custom/epa_core/js/alert.js"></script>  \r\n<script type="text/javascript" src="../18f-files/append-submenu.js"></script>  \r\n<script type="text/javascript" src="https://www3.epa.gov/region1/js/slimbox2/js/slimbox2.js"></script>\r\n<script type="text/javascript">\r\n(function ($){\r\n\t$(\'head\').append(\'<link rel="stylesheet" type="text/css" href="https://www3.epa.gov/region1/js/slimbox2/css/slimbox2.css" />\');\r\n})(jQuery);\r\n</script>\r\n<!-- InstanceBeginEditable name="scripts" --> \r\n<script type="text/javascript">\r\n(function ($){\r\n\r\n    window.setInterval(function() {\r\n    var timeLeft = $(\'#timeLeft\').html();                                \r\n        if(parseInt(timeLeft) == 0){\r\n                window.location= (\'https://www.epa.gov/npdes-permits/new-hampshire-final-individual-npdes-permits\');                 \r\n        }else{              \r\n            $(\'#timeLeft\').html(parseInt(timeLeft) - parseInt(1));\r\n        }\r\n    }, 1000); \r\n\r\n})(jQuery);\r\n</script>\r\n<style>\r\n#timeLeft { color:red; font-weight: bold; }\r\n</style>\r\n<!-- InstanceEndEditable --> \r\n<!--[if lt IE 9]><script src="https://www.epa.gov/sites/all/themes/epa/js/ie.js"></script><![endif]-->\r\n</body>\r\n<!-- InstanceEnd --></html>\r\n'
p6
aS'<!DOCTYPE html>\r\n<!--[if IEMobile 7]><html class="iem7 no-js" lang="en" dir="ltr"><![endif]-->\r\n<!--[if lt IE 7]><html class="lt-ie9 lt-ie8 lt-ie7 no-js" lang="en" dir="ltr"><![endif]-->\r\n<!--[if (IE 7)&(!IEMobile)]><html class="lt-ie9 lt-ie8 no-js" lang="en" dir="ltr"><![endif]-->\r\n<!--[if IE 8]><html class="lt-ie9 no-js" lang="en" dir="ltr"><![endif]-->\r\n<!--[if (gt IE 8)|(gt IEMobile 7)]><!--> <html class="no-js not-oldie" lang="en" dir="ltr"><!-- InstanceBegin template="/Templates/1epane-18f.dwt" codeOutsideHTMLIsLocked="false" -->\r\n <!--<![endif]-->\r\n<head>\r\n    <meta charset="utf-8" />\r\n    <meta http-equiv="X-UA-Compatible" content="IE=edge" />\r\n    <meta name="HandheldFriendly" content="true" />\r\n    <link rel="shortcut icon" href="https://www.epa.gov/sites/all/themes/epa/favicon.ico" type="image/vnd.microsoft.icon" />\r\n    <meta name="MobileOptimized" content="width" />\r\n    <meta http-equiv="cleartype" content="on" />\r\n    <meta http-equiv="ImageToolbar" content="false" />\r\n    <meta name="viewport" content="width=device-width" />\r\n    <meta name="version" content="20161218" />\r\n    <!--googleon: all-->\r\n    <!-- InstanceBeginEditable name="metaElements" -->\r\n<title>Massachusetts Draft Individual NPDES Permits | NPDES Permits in New England | US EPA</title>\r\n<meta name="DC.description" content="EPA New England Issued Draft NPDES Permits for Massachusetts" />\r\n<meta name="keywords" content="npdes, national pollutant discharge elimination system, wastewater, discharge, stormwater, publicly owned treatment works facility, potw, water pollution control facility, wpcf, wastewater treatment facility, wwtf, wastewater treatment plant, wwtp, draft permit, massachusetts" />\r\n<meta name="DC.title" content="Massachusetts Draft Individual NPDES Permits" />\r\n<meta name="DC.Subject.epabrm" content="Manage Water Quality" />\r\n<meta name="DC.type" content="Policies &amp; Guidance" />\r\n<meta name="DC.Subject.epachannel" content="Laws &amp; Regulations" />\r\n<meta http-equiv="Refresh" content="15;URL=https://www.epa.gov/npdes-permits/massachusetts-draft-individual-npdes-permits" />\r\n<!-- InstanceEndEditable -->\r\n    <!--googleoff: snippet-->\r\n    <meta name="DC.creator" content="US EPA,REG 01" />\r\n    <meta name="DC.language" content="en" />\r\n    <meta name="DC.date.created" content="2011-02-14" />\r\n    <meta name="DC.date.modified" content="2017-05-19" />\r\n    <!--googleoff: all-->\r\n    <link type="text/css" rel="stylesheet" href="../18f-files/a.css" media="all" />\r\n    <link type="text/css" rel="stylesheet" href="../18f-files/b.css" media="all" />\r\n    <link type="text/css" rel="stylesheet" href="../18f-files/c.css" media="all" />\r\n    <link type="text/css" rel="stylesheet" href="../18f-files/d.css" media="all" />\r\n    \r\n    <!--[if lt IE 9]><link type="text/css" rel="stylesheet" href="../18f-files/e-ie.css" media="all" /><![endif]-->\r\n    <link rel="alternate" type="application/atom+xml" title="EPA.gov All Press Releases" href="https://www.epa.gov/newsreleases/search/rss" />\r\n    <link rel="alternate" type="application/atom+xml" title="EPA.gov Headquarters Press Releases" href="https://www.epa.gov/newsreleases/search/rss/field_press_office/headquarters" />\r\n    <link rel="alternate" type="application/atom+xml" title="Greenversations, EPA\'s Blog" href="https://blog.epa.gov/blog/feed/" />\r\n    <!--[if lt IE 9]><script src="https://www.epa.gov/sites/all/themes/epa/js/html5.js"></script><![endif]-->\r\n    <link type="text/css" rel="stylesheet" href="../18f-files/f.css" media="all" />\r\n    \r\n</head>\r\n<body class="html not-front not-logged-in one-sidebar sidebar-first page-node page-node-2553 node-type-page og-context og-context-node og-context-node-851 section-aboutepa microsite" >\r\n\r\n    <!-- Google Tag Manager -->\r\n<noscript><iframe src="//www.googletagmanager.com/ns.html?id=GTM-L8ZB" height="0" width="0" style="display:none;visibility:hidden"></iframe></noscript>\r\n<script>(function(w,d,s,l,i){w[l]=w[l]||[];w[l].push({\'gtm.start\':new Date().getTime(),event:\'gtm.js\'});var f=d.getElementsByTagName(s)[0],j=d.createElement(s),dl=l!=\'dataLayer\'?\'&l=\'+l:\'\';j.async=true;j.src=\'//www.googletagmanager.com/gtm.js?id=\'+i+dl;f.parentNode.insertBefore(j,f);})(window,document,\'script\',\'dataLayer\',\'GTM-L8ZB\');</script>\r\n  <!-- End Google Tag Manager -->\r\n  <div class="skip-links"><a href="#main-content" class="skip-link element-invisible element-focusable">Jump to main content</a></div>\r\n  <header class="masthead clearfix" role="banner">\r\n    <img class="site-logo" src="https://www.epa.gov/sites/all/themes/epa/logo.png" alt="" />\r\n    <hgroup class="site-name-and-slogan">\r\n      <h1 class="site-name"><a href="https://www.epa.gov/" title="Go to the home page" rel="home"><span>US EPA</span></a></h1>\r\n      <div class="site-slogan">United States Environmental Protection Agency</div>\r\n    </hgroup>\r\n    <form class="epa-search" method="get" action="https://search.epa.gov/epasearch/epasearch">\r\n      <label class="element-hidden" for="search-box">Search</label>\r\n      <input class="form-text" placeholder="Search EPA.gov" name="querytext" id="search-box" value=""/>\r\n      <button class="epa-search-button" id="search-button" type="submit" title="Search">Search</button>\r\n      <input type="hidden" name="areaname" value="" />\r\n      <input type="hidden" name="areacontacts" value="" />\r\n      <input type="hidden" name="areasearchurl" value="" />\r\n      <input type="hidden" name="typeofsearch" value="epa" />\r\n      <input type="hidden" name="result_template" value="2col.ftl" />\r\n    </form>\r\n  </header>\r\n  <section id="main-content" class="main-content clearfix" role="main">\r\n  <h2 class="microsite-name">Region 1: EPA New England</h2>  \r\n    <div class="region-preface clearfix">\r\n    \r\n    <div id="block-pane-social-sharing" class="block block-pane block-pane-social-sharing">\r\n    \r\n    </div>\r\n    \r\n      <div id="block-pane-epa-web-area-connect" class="block block-pane contextual-links-region">\r\n        <ul class="menu utility-menu">\r\n          <li class="menu-item"><a href="https://www.epa.gov/aboutepa/forms/contacting-epa-new-england" class="menu-link contact-us">Contact Us</a></li>\r\n        </ul>\r\n      </div>\r\n    </div>\r\n    <div class="main-column clearfix">\r\n<!--googleon: all-->\r\n      <h1 class="page-title"><!-- InstanceBeginEditable name="PageName" -->Massachusetts Draft Individual NPDES Permits<!-- InstanceEndEditable --></h1>\r\n      <div class="panel-pane pane-node-content" >\r\n        <div class="pane-content">\r\n          <div class="node node-page clearfix view-mode-full"><!-- InstanceBeginEditable name="content" -->\r\n\r\n\r\n            <p>The Massachusetts Draft Individual NPDES Permits webpage has moved. This web address will expire soon.</p>\r\n            <p>You will be redirected in <span id="timeLeft">10</span> seconds to the new web address (<a href="https://www.epa.gov/npdes-permits/massachusetts-draft-individual-npdes-permits">https://www.epa.gov/npdes-permits/massachusetts-draft-individual-npdes-permits</a>).</p>\r\n            <p>Please update your bookmarks.</p>\r\n\r\n      <!-- InstanceEndEditable --></div>\r\n        </div>\r\n      </div>\r\n\r\n    <div id="block-pane-epa-web-area-footer" class="block block-pane block-pane-epa-web-area-footer">\r\n      \r\n        <p class="web-area-footer"><a href="https://www.epa.gov/aboutepa/forms/contacting-epa-new-england" class="contact-us">Contact Us</a> to ask a question, provide feedback, or report a problem.</p>  \r\n    </div>\r\n\r\n    <!--googleoff: all-->\r\n    </div>\r\n    \r\n    <div class="region-sidebar-first region-sidebar">  \r\n      <div id="block-og-menu-og-single-menu-block" class="block block-og-menu block-og-menu-og-single-menu-block">\r\n      <noscript><h3 class="whiteText" style="text-align:center; padding-top:20px;">This page requires Javascript. Please enable it in your browser settings.</h3></noscript>\r\n        <script type="text/javascript" src="../18f-files/r1-left-nav.js"></script>\r\n        </div>\r\n    </div>\r\n    \r\n</section>\r\n  \r\n  <nav class="nav simple-nav simple-main-nav" role="navigation">\r\n    <div class="nav__inner">\r\n        <h2 class="element-invisible">Main menu</h2>    \r\n        <ul class="menu">\r\n          <li class="menu-item" id="main-menu-enviro-topics"><a href="https://www.epa.gov/environmental-topics" title="Learn about EPA&#039;s environmental topics to help protect the environment in your home, workplace, and community and EPA&#039;s research mission is to conduct leading-edge research and foster the sound use of science and technology." class="menu-link">Environmental Topics</a>\r\n          </li>\r\n            <li class="menu-item" id="main-menu-laws-regs"><a href="https://www.epa.gov/laws-regulations" title="Laws written by Congress provide the authority for EPA to write regulations. Regulations explain the technical, operational, and legal details necessary to implement laws." class="menu-link">Laws &amp; Regulations</a>\r\n            </li>\r\n          <li class="menu-item" id="main-menu-about-epa"><a href="https://www.epa.gov/aboutepa" title="Learn more about: our mission and what we do, how we are organized, and our history." class="menu-link">About EPA</a>\r\n          </li>\r\n        </ul>\r\n\r\n    </div>\r\n  </nav>\r\n  \r\n<footer class="main-footer clearfix" role="contentinfo">\r\n    <div class="main-footer__inner">\r\n        <div class="region-footer">\r\n            <div id="block-pane-epa-global-footer" class="block block-pane  block-pane-epa-global-footer">\r\n                <div class="row cols-3">\r\n                    <div class="col size-1of3">\r\n                        <div class="col__title">Discover.</div>\r\n                        <ul class="menu">\r\n                          <li><a href="https://www.epa.gov/accessibility">Accessibility</a></li>\r\n                          <li><a href="https://www.epa.gov/aboutepa/administrator-gina-mccarthy">EPA Administrator</a></li>\r\n                          <li><a href="https://www.epa.gov/planandbudget">Budget &amp; Performance</a></li>\r\n                          <li><a href="https://www.epa.gov/contracts">Contracting</a></li>\r\n                          <li><a href="https://www.epa.gov/home/grants-and-other-funding-opportunities">Grants</a></li>\r\n                          <li><a href="https://www.epa.gov/ocr/whistleblower-protections-epa-and-how-they-relate-non-disclosure-agreements-signed-epa-employees">No FEAR Act Data</a></li>\r\n                          <li><a href="https://www.epa.gov/home/privacy-and-security-notice">Privacy and Security</a></li>\r\n                        </ul>\r\n                    </div>\r\n                    \r\n                    <div class="col size-1of3">\r\n                        <div class="col__title">Connect.</div>\r\n                        <ul class="menu">\r\n                          <li><a href="https://www.data.gov/">Data.gov</a></li>\r\n                          <li><a href="https://www.epa.gov/office-inspector-general/about-epas-office-inspector-general">Inspector General</a></li>\r\n                          <li><a href="https://www.epa.gov/careers">Jobs</a></li>\r\n                          <li><a href="https://www.epa.gov/newsroom">Newsroom</a></li>\r\n                          <li><a href="https://www.whitehouse.gov/open">Open Government</a></li>\r\n                          <li><a href="http://www.regulations.gov/">Regulations.gov</a></li>\r\n                          <li><a href="https://www.epa.gov/newsroom/email-subscriptions">Subscribe</a></li>\r\n                          <li><a href="https://www.usa.gov/">USA.gov</a></li>\r\n                          <li><a href="https://www.whitehouse.gov/">White House</a></li>\r\n                        </ul>\r\n                    </div>\r\n                    \r\n                    <div class="col size-1of3">\r\n                        <div class="col__title">Ask.</div>\r\n                        <ul class="menu">\r\n                          <li><a href="https://www.epa.gov/home/forms/contact-us">Contact Us</a></li>\r\n                          <li><a href="https://www.epa.gov/home/epa-hotlines">Hotlines</a></li>\r\n                          <li><a href="https://www.epa.gov/foia">FOIA Requests</a></li>\r\n                          <li><a href="https://www.epa.gov/home/frequent-questions-specific-epa-programstopics">Frequent Questions</a></li>\r\n                        </ul>\r\n                        \r\n                        <div class="col__title">Follow.</div>\r\n                        <ul class="social-menu">\r\n                          <li><a class="menu-link social-facebook" href="https://www.facebook.com/EPA">Facebook</a></li>\r\n                          <li><a class="menu-link social-twitter" href="https://twitter.com/epa">Twitter</a></li>\r\n                          <li><a class="menu-link social-youtube" href="https://www.youtube.com/user/USEPAgov">YouTube</a></li>\r\n                          <li><a class="menu-link social-flickr" href="https://www.flickr.com/photos/usepagov">Flickr</a></li>\r\n                          <li><a class="menu-link social-instagram" href="https://www.instagram.com/epagov">Instagram</a></li>\r\n                        </ul>\r\n                        \r\n                        <p class="last-updated">Last updated on <!-- #BeginDate format:Am1 -->August 25, 2017<!-- #EndDate --></p>\r\n                    </div>\r\n                </div>  \r\n            </div>\r\n        </div>\r\n    </div>\r\n</footer>   \r\n\r\n<script type="text/javascript" src="https://www.epa.gov/sites/all/libraries/template/jquery.js"></script>\r\n<script type="text/javascript" src="../18f-files/template-js.js"></script>\r\n<script type="text/javascript" src="https://www.epa.gov/sites/all/modules/custom/epa_core/js/alert.js"></script>  \r\n<script type="text/javascript" src="../18f-files/append-submenu.js"></script>  \r\n<script type="text/javascript" src="https://www3.epa.gov/region1/js/slimbox2/js/slimbox2.js"></script>\r\n<script type="text/javascript">\r\n(function ($){\r\n\t$(\'head\').append(\'<link rel="stylesheet" type="text/css" href="https://www3.epa.gov/region1/js/slimbox2/css/slimbox2.css" />\');\r\n})(jQuery);\r\n</script>\r\n<!-- InstanceBeginEditable name="scripts" --> \r\n<script type="text/javascript">\r\n(function ($){\r\n\r\n    window.setInterval(function() {\r\n    var timeLeft = $(\'#timeLeft\').html();                                \r\n        if(parseInt(timeLeft) == 0){\r\n                window.location= (\'https://www.epa.gov/npdes-permits/massachusetts-draft-individual-npdes-permits\');                 \r\n        }else{              \r\n            $(\'#timeLeft\').html(parseInt(timeLeft) - parseInt(1));\r\n        }\r\n    }, 1000); \r\n\r\n})(jQuery);\r\n</script>\r\n<style>\r\n#timeLeft { color:red; font-weight: bold; }\r\n</style>\r\n<!-- InstanceEndEditable --> \r\n<!--[if lt IE 9]><script src="https://www.epa.gov/sites/all/themes/epa/js/ie.js"></script><![endif]-->\r\n</body>\r\n<!-- InstanceEnd --></html>\r\n'
p7
aS'<!DOCTYPE html>\r\n<!--[if IEMobile 7]><html class="iem7 no-js" lang="en" dir="ltr"><![endif]-->\r\n<!--[if lt IE 7]><html class="lt-ie9 lt-ie8 lt-ie7 no-js" lang="en" dir="ltr"><![endif]-->\r\n<!--[if (IE 7)&(!IEMobile)]><html class="lt-ie9 lt-ie8 no-js" lang="en" dir="ltr"><![endif]-->\r\n<!--[if IE 8]><html class="lt-ie9 no-js" lang="en" dir="ltr"><![endif]-->\r\n<!--[if (gt IE 8)|(gt IEMobile 7)]><!--> <html class="no-js not-oldie" lang="en" dir="ltr"><!-- InstanceBegin template="/Templates/1epane-18f.dwt" codeOutsideHTMLIsLocked="false" -->\r\n <!--<![endif]-->\r\n<head>\r\n    <meta charset="utf-8" />\r\n    <meta http-equiv="X-UA-Compatible" content="IE=edge" />\r\n    <meta name="HandheldFriendly" content="true" />\r\n    <link rel="shortcut icon" href="https://www.epa.gov/sites/all/themes/epa/favicon.ico" type="image/vnd.microsoft.icon" />\r\n    <meta name="MobileOptimized" content="width" />\r\n    <meta http-equiv="cleartype" content="on" />\r\n    <meta http-equiv="ImageToolbar" content="false" />\r\n    <meta name="viewport" content="width=device-width" />\r\n    <meta name="version" content="20161218" />\r\n    <!--googleon: all-->\r\n    <!-- InstanceBeginEditable name="metaElements" -->\r\n<title>Massachusetts - Final-issuance Individual Facility Permits | NPDES Permits in New England | US EPA</title>\r\n<meta name="DC.description" content="EPA New England Issued NPDES Permits for Massachusetts" />\r\n<meta name="keywords" content="npdes, national pollutant discharge elimination system, wastewater, discharge, stormwater, publicly owned treatment works facility, potw, water pollution control facility, wpcf, wastewater treatment facility, wwtf, wastewater treatment plant, wwtp, final permit, massachusetts" />\r\n<meta name="DC.title" content="Massachusetts - Final-issuance Individual Facility Permits" />\r\n<meta name="DC.Subject.epabrm" content="Manage Water Quality" />\r\n<meta name="DC.type" content="Collections &amp; Lists" />\r\n<meta name="DC.Subject.epachannel" content="Laws &amp; Regulations" />\r\n<meta http-equiv="Refresh" content="15;URL=https://www.epa.gov/npdes-permits/massachusetts-final-individual-npdes-permits" />\r\n<!-- InstanceEndEditable -->\r\n    <!--googleoff: snippet-->\r\n    <meta name="DC.creator" content="US EPA,REG 01" />\r\n    <meta name="DC.language" content="en" />\r\n    <meta name="DC.date.created" content="2011-02-14" />\r\n    <meta name="DC.date.modified" content="2017-05-19" />\r\n    <!--googleoff: all-->\r\n    <link type="text/css" rel="stylesheet" href="../18f-files/a.css" media="all" />\r\n    <link type="text/css" rel="stylesheet" href="../18f-files/b.css" media="all" />\r\n    <link type="text/css" rel="stylesheet" href="../18f-files/c.css" media="all" />\r\n    <link type="text/css" rel="stylesheet" href="../18f-files/d.css" media="all" />\r\n    \r\n    <!--[if lt IE 9]><link type="text/css" rel="stylesheet" href="../18f-files/e-ie.css" media="all" /><![endif]-->\r\n    <link rel="alternate" type="application/atom+xml" title="EPA.gov All Press Releases" href="https://www.epa.gov/newsreleases/search/rss" />\r\n    <link rel="alternate" type="application/atom+xml" title="EPA.gov Headquarters Press Releases" href="https://www.epa.gov/newsreleases/search/rss/field_press_office/headquarters" />\r\n    <link rel="alternate" type="application/atom+xml" title="Greenversations, EPA\'s Blog" href="https://blog.epa.gov/blog/feed/" />\r\n    <!--[if lt IE 9]><script src="https://www.epa.gov/sites/all/themes/epa/js/html5.js"></script><![endif]-->\r\n    <link type="text/css" rel="stylesheet" href="../18f-files/f.css" media="all" />\r\n    \r\n</head>\r\n<body class="html not-front not-logged-in one-sidebar sidebar-first page-node page-node-2553 node-type-page og-context og-context-node og-context-node-851 section-aboutepa microsite" >\r\n\r\n    <!-- Google Tag Manager -->\r\n<noscript><iframe src="//www.googletagmanager.com/ns.html?id=GTM-L8ZB" height="0" width="0" style="display:none;visibility:hidden"></iframe></noscript>\r\n<script>(function(w,d,s,l,i){w[l]=w[l]||[];w[l].push({\'gtm.start\':new Date().getTime(),event:\'gtm.js\'});var f=d.getElementsByTagName(s)[0],j=d.createElement(s),dl=l!=\'dataLayer\'?\'&l=\'+l:\'\';j.async=true;j.src=\'//www.googletagmanager.com/gtm.js?id=\'+i+dl;f.parentNode.insertBefore(j,f);})(window,document,\'script\',\'dataLayer\',\'GTM-L8ZB\');</script>\r\n  <!-- End Google Tag Manager -->\r\n  <div class="skip-links"><a href="#main-content" class="skip-link element-invisible element-focusable">Jump to main content</a></div>\r\n  <header class="masthead clearfix" role="banner">\r\n    <img class="site-logo" src="https://www.epa.gov/sites/all/themes/epa/logo.png" alt="" />\r\n    <hgroup class="site-name-and-slogan">\r\n      <h1 class="site-name"><a href="https://www.epa.gov/" title="Go to the home page" rel="home"><span>US EPA</span></a></h1>\r\n      <div class="site-slogan">United States Environmental Protection Agency</div>\r\n    </hgroup>\r\n    <form class="epa-search" method="get" action="https://search.epa.gov/epasearch/epasearch">\r\n      <label class="element-hidden" for="search-box">Search</label>\r\n      <input class="form-text" placeholder="Search EPA.gov" name="querytext" id="search-box" value=""/>\r\n      <button class="epa-search-button" id="search-button" type="submit" title="Search">Search</button>\r\n      <input type="hidden" name="areaname" value="" />\r\n      <input type="hidden" name="areacontacts" value="" />\r\n      <input type="hidden" name="areasearchurl" value="" />\r\n      <input type="hidden" name="typeofsearch" value="epa" />\r\n      <input type="hidden" name="result_template" value="2col.ftl" />\r\n    </form>\r\n  </header>\r\n  <section id="main-content" class="main-content clearfix" role="main">\r\n  <h2 class="microsite-name">Region 1: EPA New England</h2>  \r\n    <div class="region-preface clearfix">\r\n    \r\n    <div id="block-pane-social-sharing" class="block block-pane block-pane-social-sharing">\r\n    \r\n    </div>\r\n    \r\n      <div id="block-pane-epa-web-area-connect" class="block block-pane contextual-links-region">\r\n        <ul class="menu utility-menu">\r\n          <li class="menu-item"><a href="https://www.epa.gov/aboutepa/forms/contacting-epa-new-england" class="menu-link contact-us">Contact Us</a></li>\r\n        </ul>\r\n      </div>\r\n    </div>\r\n    <div class="main-column clearfix">\r\n<!--googleon: all-->\r\n      <h1 class="page-title"><!-- InstanceBeginEditable name="PageName" -->Massachusetts Final Individual NPDES Permits<!-- InstanceEndEditable --></h1>\r\n      <div class="panel-pane pane-node-content" >\r\n        <div class="pane-content">\r\n          <div class="node node-page clearfix view-mode-full"><!-- InstanceBeginEditable name="content" -->\r\n\r\n\r\n            <p>The Massachusetts Final Individual NPDES Permits webpage has moved. This web address will expire soon.</p>\r\n            <p>You will be redirected in <span id="timeLeft">10</span> seconds to the new web address (<a href="https://www.epa.gov/npdes-permits/massachusetts-final-individual-npdes-permits">https://www.epa.gov/npdes-permits/massachusetts-final-individual-npdes-permits</a>).</p>\r\n            <p>Please update your bookmarks.</p>\r\n\r\n      <!-- InstanceEndEditable --></div>\r\n        </div>\r\n      </div>\r\n\r\n    <div id="block-pane-epa-web-area-footer" class="block block-pane block-pane-epa-web-area-footer">\r\n      \r\n        <p class="web-area-footer"><a href="https://www.epa.gov/aboutepa/forms/contacting-epa-new-england" class="contact-us">Contact Us</a> to ask a question, provide feedback, or report a problem.</p>  \r\n    </div>\r\n\r\n    <!--googleoff: all-->\r\n    </div>\r\n    \r\n    <div class="region-sidebar-first region-sidebar">  \r\n      <div id="block-og-menu-og-single-menu-block" class="block block-og-menu block-og-menu-og-single-menu-block">\r\n      <noscript><h3 class="whiteText" style="text-align:center; padding-top:20px;">This page requires Javascript. Please enable it in your browser settings.</h3></noscript>\r\n        <script type="text/javascript" src="../18f-files/r1-left-nav.js"></script>\r\n        </div>\r\n    </div>\r\n    \r\n</section>\r\n  \r\n  <nav class="nav simple-nav simple-main-nav" role="navigation">\r\n    <div class="nav__inner">\r\n        <h2 class="element-invisible">Main menu</h2>    \r\n        <ul class="menu">\r\n          <li class="menu-item" id="main-menu-enviro-topics"><a href="https://www.epa.gov/environmental-topics" title="Learn about EPA&#039;s environmental topics to help protect the environment in your home, workplace, and community and EPA&#039;s research mission is to conduct leading-edge research and foster the sound use of science and technology." class="menu-link">Environmental Topics</a>\r\n          </li>\r\n            <li class="menu-item" id="main-menu-laws-regs"><a href="https://www.epa.gov/laws-regulations" title="Laws written by Congress provide the authority for EPA to write regulations. Regulations explain the technical, operational, and legal details necessary to implement laws." class="menu-link">Laws &amp; Regulations</a>\r\n            </li>\r\n          <li class="menu-item" id="main-menu-about-epa"><a href="https://www.epa.gov/aboutepa" title="Learn more about: our mission and what we do, how we are organized, and our history." class="menu-link">About EPA</a>\r\n          </li>\r\n        </ul>\r\n\r\n    </div>\r\n  </nav>\r\n  \r\n<footer class="main-footer clearfix" role="contentinfo">\r\n    <div class="main-footer__inner">\r\n        <div class="region-footer">\r\n            <div id="block-pane-epa-global-footer" class="block block-pane  block-pane-epa-global-footer">\r\n                <div class="row cols-3">\r\n                    <div class="col size-1of3">\r\n                        <div class="col__title">Discover.</div>\r\n                        <ul class="menu">\r\n                          <li><a href="https://www.epa.gov/accessibility">Accessibility</a></li>\r\n                          <li><a href="https://www.epa.gov/aboutepa/administrator-gina-mccarthy">EPA Administrator</a></li>\r\n                          <li><a href="https://www.epa.gov/planandbudget">Budget &amp; Performance</a></li>\r\n                          <li><a href="https://www.epa.gov/contracts">Contracting</a></li>\r\n                          <li><a href="https://www.epa.gov/home/grants-and-other-funding-opportunities">Grants</a></li>\r\n                          <li><a href="https://www.epa.gov/ocr/whistleblower-protections-epa-and-how-they-relate-non-disclosure-agreements-signed-epa-employees">No FEAR Act Data</a></li>\r\n                          <li><a href="https://www.epa.gov/home/privacy-and-security-notice">Privacy and Security</a></li>\r\n                        </ul>\r\n                    </div>\r\n                    \r\n                    <div class="col size-1of3">\r\n                        <div class="col__title">Connect.</div>\r\n                        <ul class="menu">\r\n                          <li><a href="https://www.data.gov/">Data.gov</a></li>\r\n                          <li><a href="https://www.epa.gov/office-inspector-general/about-epas-office-inspector-general">Inspector General</a></li>\r\n                          <li><a href="https://www.epa.gov/careers">Jobs</a></li>\r\n                          <li><a href="https://www.epa.gov/newsroom">Newsroom</a></li>\r\n                          <li><a href="https://www.whitehouse.gov/open">Open Government</a></li>\r\n                          <li><a href="http://www.regulations.gov/">Regulations.gov</a></li>\r\n                          <li><a href="https://www.epa.gov/newsroom/email-subscriptions">Subscribe</a></li>\r\n                          <li><a href="https://www.usa.gov/">USA.gov</a></li>\r\n                          <li><a href="https://www.whitehouse.gov/">White House</a></li>\r\n                        </ul>\r\n                    </div>\r\n                    \r\n                    <div class="col size-1of3">\r\n                        <div class="col__title">Ask.</div>\r\n                        <ul class="menu">\r\n                          <li><a href="https://www.epa.gov/home/forms/contact-us">Contact Us</a></li>\r\n                          <li><a href="https://www.epa.gov/home/epa-hotlines">Hotlines</a></li>\r\n                          <li><a href="https://www.epa.gov/foia">FOIA Requests</a></li>\r\n                          <li><a href="https://www.epa.gov/home/frequent-questions-specific-epa-programstopics">Frequent Questions</a></li>\r\n                        </ul>\r\n                        \r\n                        <div class="col__title">Follow.</div>\r\n                        <ul class="social-menu">\r\n                          <li><a class="menu-link social-facebook" href="https://www.facebook.com/EPA">Facebook</a></li>\r\n                          <li><a class="menu-link social-twitter" href="https://twitter.com/epa">Twitter</a></li>\r\n                          <li><a class="menu-link social-youtube" href="https://www.youtube.com/user/USEPAgov">YouTube</a></li>\r\n                          <li><a class="menu-link social-flickr" href="https://www.flickr.com/photos/usepagov">Flickr</a></li>\r\n                          <li><a class="menu-link social-instagram" href="https://www.instagram.com/epagov">Instagram</a></li>\r\n                        </ul>\r\n                        \r\n                        <p class="last-updated">Last updated on <!-- #BeginDate format:Am1 -->August 25, 2017<!-- #EndDate --></p>\r\n                    </div>\r\n                </div>  \r\n            </div>\r\n        </div>\r\n    </div>\r\n</footer>   \r\n\r\n<script type="text/javascript" src="https://www.epa.gov/sites/all/libraries/template/jquery.js"></script>\r\n<script type="text/javascript" src="../18f-files/template-js.js"></script>\r\n<script type="text/javascript" src="https://www.epa.gov/sites/all/modules/custom/epa_core/js/alert.js"></script>  \r\n<script type="text/javascript" src="../18f-files/append-submenu.js"></script>  \r\n<script type="text/javascript" src="https://www3.epa.gov/region1/js/slimbox2/js/slimbox2.js"></script>\r\n<script type="text/javascript">\r\n(function ($){\r\n\t$(\'head\').append(\'<link rel="stylesheet" type="text/css" href="https://www3.epa.gov/region1/js/slimbox2/css/slimbox2.css" />\');\r\n})(jQuery);\r\n</script>\r\n<!-- InstanceBeginEditable name="scripts" --> \r\n<script type="text/javascript">\r\n(function ($){\r\n\r\n    window.setInterval(function() {\r\n    var timeLeft = $(\'#timeLeft\').html();                                \r\n        if(parseInt(timeLeft) == 0){\r\n                window.location= (\'https://www.epa.gov/npdes-permits/massachusetts-final-individual-npdes-permits\');                 \r\n        }else{              \r\n            $(\'#timeLeft\').html(parseInt(timeLeft) - parseInt(1));\r\n        }\r\n    }, 1000); \r\n\r\n})(jQuery);\r\n</script>\r\n<style>\r\n#timeLeft { color:red; font-weight: bold; }\r\n</style>\r\n<!-- InstanceEndEditable --> \r\n<!--[if lt IE 9]><script src="https://www.epa.gov/sites/all/themes/epa/js/ie.js"></script><![endif]-->\r\n</body>\r\n<!-- InstanceEnd --></html>\r\n'
p8
aS'<!DOCTYPE html>\r\n<!--[if IEMobile 7]><html class="iem7 no-js" lang="en" dir="ltr"><![endif]-->\r\n<!--[if lt IE 7]><html class="lt-ie9 lt-ie8 lt-ie7 no-js" lang="en" dir="ltr"><![endif]-->\r\n<!--[if (IE 7)&(!IEMobile)]><html class="lt-ie9 lt-ie8 no-js" lang="en" dir="ltr"><![endif]-->\r\n<!--[if IE 8]><html class="lt-ie9 no-js" lang="en" dir="ltr"><![endif]-->\r\n<!--[if (gt IE 8)|(gt IEMobile 7)]><!--> <html class="no-js not-oldie" lang="en" dir="ltr"><!-- InstanceBegin template="/Templates/1epane-18f.dwt" codeOutsideHTMLIsLocked="false" -->\r\n <!--<![endif]-->\r\n<head>\r\n    <meta charset="utf-8" />\r\n    <meta http-equiv="X-UA-Compatible" content="IE=edge" />\r\n    <meta name="HandheldFriendly" content="true" />\r\n    <link rel="shortcut icon" href="https://www.epa.gov/sites/all/themes/epa/favicon.ico" type="image/vnd.microsoft.icon" />\r\n    <meta name="MobileOptimized" content="width" />\r\n    <meta http-equiv="cleartype" content="on" />\r\n    <meta http-equiv="ImageToolbar" content="false" />\r\n    <meta name="viewport" content="width=device-width" />\r\n    <meta name="version" content="20161218" />\r\n    <!--googleon: all-->\r\n    <!-- InstanceBeginEditable name="metaElements" -->\r\n<title>Rhode Island Draft Individual NPDES Permits | NPDES Permits in New England | US EPA</title>\r\n<meta name="DC.description" content="EPA New England Issued Draft NPDES Permits for Rhode Island" />\r\n<meta name="keywords" content="npdes, national pollutant discharge elimination system, wastewater, discharge, stormwater, publicly owned treatment works facility, potw, water pollution control facility, wpcf, wastewater treatment facility, wwtf, wastewater treatment plant, wwtp, draft permit, Rhode Island" />\r\n<meta name="DC.title" content="Rhode Island Draft Individual NPDES Permits" />\r\n<meta name="DC.Subject.epabrm" content="Manage Water Quality" />\r\n<meta name="DC.type" content="Announcements &amp; Schedules" />\r\n<meta name="DC.Subject.epachannel" content="Laws &amp; Regulations" />\r\n<meta http-equiv="Refresh" content="15;URL=https://www.epa.gov/npdes-permits/rhode-island-draft-individual-npdes-permits" />\r\n<!-- InstanceEndEditable -->\r\n    <!--googleoff: snippet-->\r\n    <meta name="DC.creator" content="US EPA,REG 01" />\r\n    <meta name="DC.language" content="en" />\r\n    <meta name="DC.date.created" content="2011-02-14" />\r\n    <meta name="DC.date.modified" content="2017-05-19" />\r\n    <!--googleoff: all-->\r\n    <link type="text/css" rel="stylesheet" href="../18f-files/a.css" media="all" />\r\n    <link type="text/css" rel="stylesheet" href="../18f-files/b.css" media="all" />\r\n    <link type="text/css" rel="stylesheet" href="../18f-files/c.css" media="all" />\r\n    <link type="text/css" rel="stylesheet" href="../18f-files/d.css" media="all" />\r\n    \r\n    <!--[if lt IE 9]><link type="text/css" rel="stylesheet" href="../18f-files/e-ie.css" media="all" /><![endif]-->\r\n    <link rel="alternate" type="application/atom+xml" title="EPA.gov All Press Releases" href="https://www.epa.gov/newsreleases/search/rss" />\r\n    <link rel="alternate" type="application/atom+xml" title="EPA.gov Headquarters Press Releases" href="https://www.epa.gov/newsreleases/search/rss/field_press_office/headquarters" />\r\n    <link rel="alternate" type="application/atom+xml" title="Greenversations, EPA\'s Blog" href="https://blog.epa.gov/blog/feed/" />\r\n    <!--[if lt IE 9]><script src="https://www.epa.gov/sites/all/themes/epa/js/html5.js"></script><![endif]-->\r\n    <link type="text/css" rel="stylesheet" href="../18f-files/f.css" media="all" />\r\n    \r\n</head>\r\n<body class="html not-front not-logged-in one-sidebar sidebar-first page-node page-node-2553 node-type-page og-context og-context-node og-context-node-851 section-aboutepa microsite" >\r\n\r\n    <!-- Google Tag Manager -->\r\n<noscript><iframe src="//www.googletagmanager.com/ns.html?id=GTM-L8ZB" height="0" width="0" style="display:none;visibility:hidden"></iframe></noscript>\r\n<script>(function(w,d,s,l,i){w[l]=w[l]||[];w[l].push({\'gtm.start\':new Date().getTime(),event:\'gtm.js\'});var f=d.getElementsByTagName(s)[0],j=d.createElement(s),dl=l!=\'dataLayer\'?\'&l=\'+l:\'\';j.async=true;j.src=\'//www.googletagmanager.com/gtm.js?id=\'+i+dl;f.parentNode.insertBefore(j,f);})(window,document,\'script\',\'dataLayer\',\'GTM-L8ZB\');</script>\r\n  <!-- End Google Tag Manager -->\r\n  <div class="skip-links"><a href="#main-content" class="skip-link element-invisible element-focusable">Jump to main content</a></div>\r\n  <header class="masthead clearfix" role="banner">\r\n    <img class="site-logo" src="https://www.epa.gov/sites/all/themes/epa/logo.png" alt="" />\r\n    <hgroup class="site-name-and-slogan">\r\n      <h1 class="site-name"><a href="https://www.epa.gov/" title="Go to the home page" rel="home"><span>US EPA</span></a></h1>\r\n      <div class="site-slogan">United States Environmental Protection Agency</div>\r\n    </hgroup>\r\n    <form class="epa-search" method="get" action="https://search.epa.gov/epasearch/epasearch">\r\n      <label class="element-hidden" for="search-box">Search</label>\r\n      <input class="form-text" placeholder="Search EPA.gov" name="querytext" id="search-box" value=""/>\r\n      <button class="epa-search-button" id="search-button" type="submit" title="Search">Search</button>\r\n      <input type="hidden" name="areaname" value="" />\r\n      <input type="hidden" name="areacontacts" value="" />\r\n      <input type="hidden" name="areasearchurl" value="" />\r\n      <input type="hidden" name="typeofsearch" value="epa" />\r\n      <input type="hidden" name="result_template" value="2col.ftl" />\r\n    </form>\r\n  </header>\r\n  <section id="main-content" class="main-content clearfix" role="main">\r\n  <h2 class="microsite-name">Region 1: EPA New England</h2>  \r\n    <div class="region-preface clearfix">\r\n    \r\n    <div id="block-pane-social-sharing" class="block block-pane block-pane-social-sharing">\r\n    \r\n    </div>\r\n    \r\n      <div id="block-pane-epa-web-area-connect" class="block block-pane contextual-links-region">\r\n        <ul class="menu utility-menu">\r\n          <li class="menu-item"><a href="https://www.epa.gov/aboutepa/forms/contacting-epa-new-england" class="menu-link contact-us">Contact Us</a></li>\r\n        </ul>\r\n      </div>\r\n    </div>\r\n    <div class="main-column clearfix">\r\n<!--googleon: all-->\r\n      <h1 class="page-title"><!-- InstanceBeginEditable name="PageName" -->Rhode Island Draft Individual NPDES Permits<!-- InstanceEndEditable --></h1>\r\n      <div class="panel-pane pane-node-content" >\r\n        <div class="pane-content">\r\n          <div class="node node-page clearfix view-mode-full"><!-- InstanceBeginEditable name="content" -->\r\n\r\n\r\n            <p>The Rhode Island Draft Individual NPDES Permits webpage has moved. This web address will expire soon.</p>\r\n            <p>You will be redirected in <span id="timeLeft">10</span> seconds to the new web address (<a href="https://www.epa.gov/npdes-permits/rhode-island-draft-individual-npdes-permits">https://www.epa.gov/npdes-permits/rhode-island-draft-individual-npdes-permits</a>).</p>\r\n            <p>Please update your bookmarks.</p>\r\n\r\n      <!-- InstanceEndEditable --></div>\r\n        </div>\r\n      </div>\r\n\r\n    <div id="block-pane-epa-web-area-footer" class="block block-pane block-pane-epa-web-area-footer">\r\n      \r\n        <p class="web-area-footer"><a href="https://www.epa.gov/aboutepa/forms/contacting-epa-new-england" class="contact-us">Contact Us</a> to ask a question, provide feedback, or report a problem.</p>  \r\n    </div>\r\n\r\n    <!--googleoff: all-->\r\n    </div>\r\n    \r\n    <div class="region-sidebar-first region-sidebar">  \r\n      <div id="block-og-menu-og-single-menu-block" class="block block-og-menu block-og-menu-og-single-menu-block">\r\n      <noscript><h3 class="whiteText" style="text-align:center; padding-top:20px;">This page requires Javascript. Please enable it in your browser settings.</h3></noscript>\r\n        <script type="text/javascript" src="../18f-files/r1-left-nav.js"></script>\r\n        </div>\r\n    </div>\r\n    \r\n</section>\r\n  \r\n  <nav class="nav simple-nav simple-main-nav" role="navigation">\r\n    <div class="nav__inner">\r\n        <h2 class="element-invisible">Main menu</h2>    \r\n        <ul class="menu">\r\n          <li class="menu-item" id="main-menu-enviro-topics"><a href="https://www.epa.gov/environmental-topics" title="Learn about EPA&#039;s environmental topics to help protect the environment in your home, workplace, and community and EPA&#039;s research mission is to conduct leading-edge research and foster the sound use of science and technology." class="menu-link">Environmental Topics</a>\r\n          </li>\r\n            <li class="menu-item" id="main-menu-laws-regs"><a href="https://www.epa.gov/laws-regulations" title="Laws written by Congress provide the authority for EPA to write regulations. Regulations explain the technical, operational, and legal details necessary to implement laws." class="menu-link">Laws &amp; Regulations</a>\r\n            </li>\r\n          <li class="menu-item" id="main-menu-about-epa"><a href="https://www.epa.gov/aboutepa" title="Learn more about: our mission and what we do, how we are organized, and our history." class="menu-link">About EPA</a>\r\n          </li>\r\n        </ul>\r\n\r\n    </div>\r\n  </nav>\r\n  \r\n<footer class="main-footer clearfix" role="contentinfo">\r\n    <div class="main-footer__inner">\r\n        <div class="region-footer">\r\n            <div id="block-pane-epa-global-footer" class="block block-pane  block-pane-epa-global-footer">\r\n                <div class="row cols-3">\r\n                    <div class="col size-1of3">\r\n                        <div class="col__title">Discover.</div>\r\n                        <ul class="menu">\r\n                          <li><a href="https://www.epa.gov/accessibility">Accessibility</a></li>\r\n                          <li><a href="https://www.epa.gov/aboutepa/administrator-gina-mccarthy">EPA Administrator</a></li>\r\n                          <li><a href="https://www.epa.gov/planandbudget">Budget &amp; Performance</a></li>\r\n                          <li><a href="https://www.epa.gov/contracts">Contracting</a></li>\r\n                          <li><a href="https://www.epa.gov/home/grants-and-other-funding-opportunities">Grants</a></li>\r\n                          <li><a href="https://www.epa.gov/ocr/whistleblower-protections-epa-and-how-they-relate-non-disclosure-agreements-signed-epa-employees">No FEAR Act Data</a></li>\r\n                          <li><a href="https://www.epa.gov/home/privacy-and-security-notice">Privacy and Security</a></li>\r\n                        </ul>\r\n                    </div>\r\n                    \r\n                    <div class="col size-1of3">\r\n                        <div class="col__title">Connect.</div>\r\n                        <ul class="menu">\r\n                          <li><a href="https://www.data.gov/">Data.gov</a></li>\r\n                          <li><a href="https://www.epa.gov/office-inspector-general/about-epas-office-inspector-general">Inspector General</a></li>\r\n                          <li><a href="https://www.epa.gov/careers">Jobs</a></li>\r\n                          <li><a href="https://www.epa.gov/newsroom">Newsroom</a></li>\r\n                          <li><a href="https://www.whitehouse.gov/open">Open Government</a></li>\r\n                          <li><a href="http://www.regulations.gov/">Regulations.gov</a></li>\r\n                          <li><a href="https://www.epa.gov/newsroom/email-subscriptions">Subscribe</a></li>\r\n                          <li><a href="https://www.usa.gov/">USA.gov</a></li>\r\n                          <li><a href="https://www.whitehouse.gov/">White House</a></li>\r\n                        </ul>\r\n                    </div>\r\n                    \r\n                    <div class="col size-1of3">\r\n                        <div class="col__title">Ask.</div>\r\n                        <ul class="menu">\r\n                          <li><a href="https://www.epa.gov/home/forms/contact-us">Contact Us</a></li>\r\n                          <li><a href="https://www.epa.gov/home/epa-hotlines">Hotlines</a></li>\r\n                          <li><a href="https://www.epa.gov/foia">FOIA Requests</a></li>\r\n                          <li><a href="https://www.epa.gov/home/frequent-questions-specific-epa-programstopics">Frequent Questions</a></li>\r\n                        </ul>\r\n                        \r\n                        <div class="col__title">Follow.</div>\r\n                        <ul class="social-menu">\r\n                          <li><a class="menu-link social-facebook" href="https://www.facebook.com/EPA">Facebook</a></li>\r\n                          <li><a class="menu-link social-twitter" href="https://twitter.com/epa">Twitter</a></li>\r\n                          <li><a class="menu-link social-youtube" href="https://www.youtube.com/user/USEPAgov">YouTube</a></li>\r\n                          <li><a class="menu-link social-flickr" href="https://www.flickr.com/photos/usepagov">Flickr</a></li>\r\n                          <li><a class="menu-link social-instagram" href="https://www.instagram.com/epagov">Instagram</a></li>\r\n                        </ul>\r\n                        \r\n                        <p class="last-updated">Last updated on <!-- #BeginDate format:Am1 -->August 25, 2017<!-- #EndDate --></p>\r\n                    </div>\r\n                </div>  \r\n            </div>\r\n        </div>\r\n    </div>\r\n</footer>   \r\n\r\n<script type="text/javascript" src="https://www.epa.gov/sites/all/libraries/template/jquery.js"></script>\r\n<script type="text/javascript" src="../18f-files/template-js.js"></script>\r\n<script type="text/javascript" src="https://www.epa.gov/sites/all/modules/custom/epa_core/js/alert.js"></script>  \r\n<script type="text/javascript" src="../18f-files/append-submenu.js"></script>  \r\n<script type="text/javascript" src="https://www3.epa.gov/region1/js/slimbox2/js/slimbox2.js"></script>\r\n<script type="text/javascript">\r\n(function ($){\r\n\t$(\'head\').append(\'<link rel="stylesheet" type="text/css" href="https://www3.epa.gov/region1/js/slimbox2/css/slimbox2.css" />\');\r\n})(jQuery);\r\n</script>\r\n<!-- InstanceBeginEditable name="scripts" --> \r\n<script type="text/javascript">\r\n(function ($){\r\n\r\n    window.setInterval(function() {\r\n    var timeLeft = $(\'#timeLeft\').html();                                \r\n        if(parseInt(timeLeft) == 0){\r\n                window.location= (\'https://www.epa.gov/npdes-permits/rhode-island-draft-individual-npdes-permits\');                 \r\n        }else{              \r\n            $(\'#timeLeft\').html(parseInt(timeLeft) - parseInt(1));\r\n        }\r\n    }, 1000); \r\n\r\n})(jQuery);\r\n</script>\r\n<style>\r\n#timeLeft { color:red; font-weight: bold; }\r\n</style>\r\n<!-- InstanceEndEditable --> \r\n<!--[if lt IE 9]><script src="https://www.epa.gov/sites/all/themes/epa/js/ie.js"></script><![endif]-->\r\n</body>\r\n<!-- InstanceEnd --></html>\r\n'
p9
aS'<!DOCTYPE html>\r\n<!--[if IEMobile 7]><html class="iem7 no-js" lang="en" dir="ltr"><![endif]-->\r\n<!--[if lt IE 7]><html class="lt-ie9 lt-ie8 lt-ie7 no-js" lang="en" dir="ltr"><![endif]-->\r\n<!--[if (IE 7)&(!IEMobile)]><html class="lt-ie9 lt-ie8 no-js" lang="en" dir="ltr"><![endif]-->\r\n<!--[if IE 8]><html class="lt-ie9 no-js" lang="en" dir="ltr"><![endif]-->\r\n<!--[if (gt IE 8)|(gt IEMobile 7)]><!--> <html class="no-js not-oldie" lang="en" dir="ltr"><!-- InstanceBegin template="/Templates/1epane-18f.dwt" codeOutsideHTMLIsLocked="false" -->\r\n <!--<![endif]-->\r\n<head>\r\n    <meta charset="utf-8" />\r\n    <meta http-equiv="X-UA-Compatible" content="IE=edge" />\r\n    <meta name="HandheldFriendly" content="true" />\r\n    <link rel="shortcut icon" href="https://www.epa.gov/sites/all/themes/epa/favicon.ico" type="image/vnd.microsoft.icon" />\r\n    <meta name="MobileOptimized" content="width" />\r\n    <meta http-equiv="cleartype" content="on" />\r\n    <meta http-equiv="ImageToolbar" content="false" />\r\n    <meta name="viewport" content="width=device-width" />\r\n    <meta name="version" content="20161218" />\r\n    <!--googleon: all-->\r\n    <!-- InstanceBeginEditable name="metaElements" -->\r\n<title>Rhode Island - Final-issuance Individual Facility Permits | NPDES Permits in New England | US EPA</title>\r\n<meta name="DC.description" content="EPA New England Issued NPDES Permits for Rhode Island" />\r\n<meta name="keywords" content="npdes, national pollutant discharge elimination system, wastewater, discharge, stormwater, publicly owned treatment works facility, potw, water pollution control facility, wpcf, wastewater treatment facility, wwtf, wastewater treatment plant, wwtp, final permit, rhode island" />\r\n<meta name="DC.title" content="Rhode Island - Final-issuance Individual Facility Permits" />\r\n<meta name="DC.Subject.epabrm" content="Manage Water Quality" />\r\n<meta name="DC.type" content="Collections &amp; Lists" />\r\n<meta name="DC.Subject.epachannel" content="Laws &amp; Regulations" />\r\n<meta http-equiv="Refresh" content="15;URL=https://www.epa.gov/npdes-permits/rhode-island-final-individual-npdes-permits" />\r\n<!-- InstanceEndEditable -->\r\n    <!--googleoff: snippet-->\r\n    <meta name="DC.creator" content="US EPA,REG 01" />\r\n    <meta name="DC.language" content="en" />\r\n    <meta name="DC.date.created" content="2011-02-14" />\r\n    <meta name="DC.date.modified" content="2017-05-19" />\r\n    <!--googleoff: all-->\r\n    <link type="text/css" rel="stylesheet" href="../18f-files/a.css" media="all" />\r\n    <link type="text/css" rel="stylesheet" href="../18f-files/b.css" media="all" />\r\n    <link type="text/css" rel="stylesheet" href="../18f-files/c.css" media="all" />\r\n    <link type="text/css" rel="stylesheet" href="../18f-files/d.css" media="all" />\r\n    \r\n    <!--[if lt IE 9]><link type="text/css" rel="stylesheet" href="../18f-files/e-ie.css" media="all" /><![endif]-->\r\n    <link rel="alternate" type="application/atom+xml" title="EPA.gov All Press Releases" href="https://www.epa.gov/newsreleases/search/rss" />\r\n    <link rel="alternate" type="application/atom+xml" title="EPA.gov Headquarters Press Releases" href="https://www.epa.gov/newsreleases/search/rss/field_press_office/headquarters" />\r\n    <link rel="alternate" type="application/atom+xml" title="Greenversations, EPA\'s Blog" href="https://blog.epa.gov/blog/feed/" />\r\n    <!--[if lt IE 9]><script src="https://www.epa.gov/sites/all/themes/epa/js/html5.js"></script><![endif]-->\r\n    <link type="text/css" rel="stylesheet" href="../18f-files/f.css" media="all" />\r\n    \r\n</head>\r\n<body class="html not-front not-logged-in one-sidebar sidebar-first page-node page-node-2553 node-type-page og-context og-context-node og-context-node-851 section-aboutepa microsite" >\r\n\r\n    <!-- Google Tag Manager -->\r\n<noscript><iframe src="//www.googletagmanager.com/ns.html?id=GTM-L8ZB" height="0" width="0" style="display:none;visibility:hidden"></iframe></noscript>\r\n<script>(function(w,d,s,l,i){w[l]=w[l]||[];w[l].push({\'gtm.start\':new Date().getTime(),event:\'gtm.js\'});var f=d.getElementsByTagName(s)[0],j=d.createElement(s),dl=l!=\'dataLayer\'?\'&l=\'+l:\'\';j.async=true;j.src=\'//www.googletagmanager.com/gtm.js?id=\'+i+dl;f.parentNode.insertBefore(j,f);})(window,document,\'script\',\'dataLayer\',\'GTM-L8ZB\');</script>\r\n  <!-- End Google Tag Manager -->\r\n  <div class="skip-links"><a href="#main-content" class="skip-link element-invisible element-focusable">Jump to main content</a></div>\r\n  <header class="masthead clearfix" role="banner">\r\n    <img class="site-logo" src="https://www.epa.gov/sites/all/themes/epa/logo.png" alt="" />\r\n    <hgroup class="site-name-and-slogan">\r\n      <h1 class="site-name"><a href="https://www.epa.gov/" title="Go to the home page" rel="home"><span>US EPA</span></a></h1>\r\n      <div class="site-slogan">United States Environmental Protection Agency</div>\r\n    </hgroup>\r\n    <form class="epa-search" method="get" action="https://search.epa.gov/epasearch/epasearch">\r\n      <label class="element-hidden" for="search-box">Search</label>\r\n      <input class="form-text" placeholder="Search EPA.gov" name="querytext" id="search-box" value=""/>\r\n      <button class="epa-search-button" id="search-button" type="submit" title="Search">Search</button>\r\n      <input type="hidden" name="areaname" value="" />\r\n      <input type="hidden" name="areacontacts" value="" />\r\n      <input type="hidden" name="areasearchurl" value="" />\r\n      <input type="hidden" name="typeofsearch" value="epa" />\r\n      <input type="hidden" name="result_template" value="2col.ftl" />\r\n    </form>\r\n  </header>\r\n  <section id="main-content" class="main-content clearfix" role="main">\r\n  <h2 class="microsite-name">Region 1: EPA New England</h2>  \r\n    <div class="region-preface clearfix">\r\n    \r\n    <div id="block-pane-social-sharing" class="block block-pane block-pane-social-sharing">\r\n    \r\n    </div>\r\n    \r\n      <div id="block-pane-epa-web-area-connect" class="block block-pane contextual-links-region">\r\n        <ul class="menu utility-menu">\r\n          <li class="menu-item"><a href="https://www.epa.gov/aboutepa/forms/contacting-epa-new-england" class="menu-link contact-us">Contact Us</a></li>\r\n        </ul>\r\n      </div>\r\n    </div>\r\n    <div class="main-column clearfix">\r\n<!--googleon: all-->\r\n      <h1 class="page-title"><!-- InstanceBeginEditable name="PageName" -->Rhode Island Final Individual NPDES Permits<!-- InstanceEndEditable --></h1>\r\n      <div class="panel-pane pane-node-content" >\r\n        <div class="pane-content">\r\n          <div class="node node-page clearfix view-mode-full"><!-- InstanceBeginEditable name="content" -->\r\n\r\n\r\n            <p>The Rhode Island Final Individual NPDES Permits webpage has moved. This web address will expire soon.</p>\r\n            <p>You will be redirected in <span id="timeLeft">10</span> seconds to the new web address (<a href="https://www.epa.gov/npdes-permits/rhode-island-final-individual-npdes-permits">https://www.epa.gov/npdes-permits/rhode-island-final-individual-npdes-permits</a>).</p>\r\n            <p>Please update your bookmarks.</p>\r\n\r\n      <!-- InstanceEndEditable --></div>\r\n        </div>\r\n      </div>\r\n\r\n    <div id="block-pane-epa-web-area-footer" class="block block-pane block-pane-epa-web-area-footer">\r\n      \r\n        <p class="web-area-footer"><a href="https://www.epa.gov/aboutepa/forms/contacting-epa-new-england" class="contact-us">Contact Us</a> to ask a question, provide feedback, or report a problem.</p>  \r\n    </div>\r\n\r\n    <!--googleoff: all-->\r\n    </div>\r\n    \r\n    <div class="region-sidebar-first region-sidebar">  \r\n      <div id="block-og-menu-og-single-menu-block" class="block block-og-menu block-og-menu-og-single-menu-block">\r\n      <noscript><h3 class="whiteText" style="text-align:center; padding-top:20px;">This page requires Javascript. Please enable it in your browser settings.</h3></noscript>\r\n        <script type="text/javascript" src="../18f-files/r1-left-nav.js"></script>\r\n        </div>\r\n    </div>\r\n    \r\n</section>\r\n  \r\n  <nav class="nav simple-nav simple-main-nav" role="navigation">\r\n    <div class="nav__inner">\r\n        <h2 class="element-invisible">Main menu</h2>    \r\n        <ul class="menu">\r\n          <li class="menu-item" id="main-menu-enviro-topics"><a href="https://www.epa.gov/environmental-topics" title="Learn about EPA&#039;s environmental topics to help protect the environment in your home, workplace, and community and EPA&#039;s research mission is to conduct leading-edge research and foster the sound use of science and technology." class="menu-link">Environmental Topics</a>\r\n          </li>\r\n            <li class="menu-item" id="main-menu-laws-regs"><a href="https://www.epa.gov/laws-regulations" title="Laws written by Congress provide the authority for EPA to write regulations. Regulations explain the technical, operational, and legal details necessary to implement laws." class="menu-link">Laws &amp; Regulations</a>\r\n            </li>\r\n          <li class="menu-item" id="main-menu-about-epa"><a href="https://www.epa.gov/aboutepa" title="Learn more about: our mission and what we do, how we are organized, and our history." class="menu-link">About EPA</a>\r\n          </li>\r\n        </ul>\r\n\r\n    </div>\r\n  </nav>\r\n  \r\n<footer class="main-footer clearfix" role="contentinfo">\r\n    <div class="main-footer__inner">\r\n        <div class="region-footer">\r\n            <div id="block-pane-epa-global-footer" class="block block-pane  block-pane-epa-global-footer">\r\n                <div class="row cols-3">\r\n                    <div class="col size-1of3">\r\n                        <div class="col__title">Discover.</div>\r\n                        <ul class="menu">\r\n                          <li><a href="https://www.epa.gov/accessibility">Accessibility</a></li>\r\n                          <li><a href="https://www.epa.gov/aboutepa/administrator-gina-mccarthy">EPA Administrator</a></li>\r\n                          <li><a href="https://www.epa.gov/planandbudget">Budget &amp; Performance</a></li>\r\n                          <li><a href="https://www.epa.gov/contracts">Contracting</a></li>\r\n                          <li><a href="https://www.epa.gov/home/grants-and-other-funding-opportunities">Grants</a></li>\r\n                          <li><a href="https://www.epa.gov/ocr/whistleblower-protections-epa-and-how-they-relate-non-disclosure-agreements-signed-epa-employees">No FEAR Act Data</a></li>\r\n                          <li><a href="https://www.epa.gov/home/privacy-and-security-notice">Privacy and Security</a></li>\r\n                        </ul>\r\n                    </div>\r\n                    \r\n                    <div class="col size-1of3">\r\n                        <div class="col__title">Connect.</div>\r\n                        <ul class="menu">\r\n                          <li><a href="https://www.data.gov/">Data.gov</a></li>\r\n                          <li><a href="https://www.epa.gov/office-inspector-general/about-epas-office-inspector-general">Inspector General</a></li>\r\n                          <li><a href="https://www.epa.gov/careers">Jobs</a></li>\r\n                          <li><a href="https://www.epa.gov/newsroom">Newsroom</a></li>\r\n                          <li><a href="https://www.whitehouse.gov/open">Open Government</a></li>\r\n                          <li><a href="http://www.regulations.gov/">Regulations.gov</a></li>\r\n                          <li><a href="https://www.epa.gov/newsroom/email-subscriptions">Subscribe</a></li>\r\n                          <li><a href="https://www.usa.gov/">USA.gov</a></li>\r\n                          <li><a href="https://www.whitehouse.gov/">White House</a></li>\r\n                        </ul>\r\n                    </div>\r\n                    \r\n                    <div class="col size-1of3">\r\n                        <div class="col__title">Ask.</div>\r\n                        <ul class="menu">\r\n                          <li><a href="https://www.epa.gov/home/forms/contact-us">Contact Us</a></li>\r\n                          <li><a href="https://www.epa.gov/home/epa-hotlines">Hotlines</a></li>\r\n                          <li><a href="https://www.epa.gov/foia">FOIA Requests</a></li>\r\n                          <li><a href="https://www.epa.gov/home/frequent-questions-specific-epa-programstopics">Frequent Questions</a></li>\r\n                        </ul>\r\n                        \r\n                        <div class="col__title">Follow.</div>\r\n                        <ul class="social-menu">\r\n                          <li><a class="menu-link social-facebook" href="https://www.facebook.com/EPA">Facebook</a></li>\r\n                          <li><a class="menu-link social-twitter" href="https://twitter.com/epa">Twitter</a></li>\r\n                          <li><a class="menu-link social-youtube" href="https://www.youtube.com/user/USEPAgov">YouTube</a></li>\r\n                          <li><a class="menu-link social-flickr" href="https://www.flickr.com/photos/usepagov">Flickr</a></li>\r\n                          <li><a class="menu-link social-instagram" href="https://www.instagram.com/epagov">Instagram</a></li>\r\n                        </ul>\r\n                        \r\n                        <p class="last-updated">Last updated on <!-- #BeginDate format:Am1 -->August 25, 2017<!-- #EndDate --></p>\r\n                    </div>\r\n                </div>  \r\n            </div>\r\n        </div>\r\n    </div>\r\n</footer>   \r\n\r\n<script type="text/javascript" src="https://www.epa.gov/sites/all/libraries/template/jquery.js"></script>\r\n<script type="text/javascript" src="../18f-files/template-js.js"></script>\r\n<script type="text/javascript" src="https://www.epa.gov/sites/all/modules/custom/epa_core/js/alert.js"></script>  \r\n<script type="text/javascript" src="../18f-files/append-submenu.js"></script>  \r\n<script type="text/javascript" src="https://www3.epa.gov/region1/js/slimbox2/js/slimbox2.js"></script>\r\n<script type="text/javascript">\r\n(function ($){\r\n\t$(\'head\').append(\'<link rel="stylesheet" type="text/css" href="https://www3.epa.gov/region1/js/slimbox2/css/slimbox2.css" />\');\r\n})(jQuery);\r\n</script>\r\n<!-- InstanceBeginEditable name="scripts" --> \r\n<script type="text/javascript">\r\n(function ($){\r\n\r\n    window.setInterval(function() {\r\n    var timeLeft = $(\'#timeLeft\').html();                                \r\n        if(parseInt(timeLeft) == 0){\r\n                window.location= (\'https://www.epa.gov/npdes-permits/rhode-island-final-individual-npdes-permits\');                 \r\n        }else{              \r\n            $(\'#timeLeft\').html(parseInt(timeLeft) - parseInt(1));\r\n        }\r\n    }, 1000); \r\n\r\n})(jQuery);\r\n</script>\r\n<style>\r\n#timeLeft { color:red; font-weight: bold; }\r\n</style>\r\n<!-- InstanceEndEditable --> \r\n<!--[if lt IE 9]><script src="https://www.epa.gov/sites/all/themes/epa/js/ie.js"></script><![endif]-->\r\n</body>\r\n<!-- InstanceEnd --></html>\r\n'
p10
aS'<!DOCTYPE html>\r\n<!--[if IEMobile 7]><html class="iem7 no-js" lang="en" dir="ltr"><![endif]-->\r\n<!--[if lt IE 7]><html class="lt-ie9 lt-ie8 lt-ie7 no-js" lang="en" dir="ltr"><![endif]-->\r\n<!--[if (IE 7)&(!IEMobile)]><html class="lt-ie9 lt-ie8 no-js" lang="en" dir="ltr"><![endif]-->\r\n<!--[if IE 8]><html class="lt-ie9 no-js" lang="en" dir="ltr"><![endif]-->\r\n<!--[if (gt IE 8)|(gt IEMobile 7)]><!--> <html class="no-js not-oldie" lang="en" dir="ltr"><!-- InstanceBegin template="/Templates/1epane-18f.dwt" codeOutsideHTMLIsLocked="false" -->\r\n <!--<![endif]-->\r\n<head>\r\n    <meta charset="utf-8" />\r\n    <meta http-equiv="X-UA-Compatible" content="IE=edge" />\r\n    <meta name="HandheldFriendly" content="true" />\r\n    <link rel="shortcut icon" href="https://www.epa.gov/sites/all/themes/epa/favicon.ico" type="image/vnd.microsoft.icon" />\r\n    <meta name="MobileOptimized" content="width" />\r\n    <meta http-equiv="cleartype" content="on" />\r\n    <meta http-equiv="ImageToolbar" content="false" />\r\n    <meta name="viewport" content="width=device-width" />\r\n    <meta name="version" content="20161218" />\r\n    <!--googleon: all-->\r\n    <!-- InstanceBeginEditable name="metaElements" -->\r\n<title>Vermont Draft Individual NPDES Permits | NPDES Permits in New England | US EPA</title>\r\n<meta name="DC.description" content="EPA New England Issued Draft NPDES Permits for Vermont" />\r\n<meta name="keywords" content="npdes, national pollutant discharge elimination system, wastewater, discharge, stormwater, publicly owned treatment works facility, potw, water pollution control facility, wpcf, wastewater treatment facility, wwtf, wastewater treatment plant, wwtp, draft permit, vermont" />\r\n<meta name="DC.title" content="Vermont Draft Individual NPDES Permits" />\r\n<meta name="DC.Subject.epabrm" content="Manage Water Quality" />\r\n<meta name="DC.type" content="Announcements &amp; Schedules" />\r\n<meta name="DC.Subject.epachannel" content="Laws &amp; Regulations" />\r\n<meta http-equiv="Refresh" content="15;URL=https://www.epa.gov/npdes-permits/vermont-draft-individual-npdes-permits" />\r\n<!-- InstanceEndEditable -->\r\n    <!--googleoff: snippet-->\r\n    <meta name="DC.creator" content="US EPA,REG 01" />\r\n    <meta name="DC.language" content="en" />\r\n    <meta name="DC.date.created" content="2011-02-14" />\r\n    <meta name="DC.date.modified" content="2017-05-19" />\r\n    <!--googleoff: all-->\r\n    <link type="text/css" rel="stylesheet" href="../18f-files/a.css" media="all" />\r\n    <link type="text/css" rel="stylesheet" href="../18f-files/b.css" media="all" />\r\n    <link type="text/css" rel="stylesheet" href="../18f-files/c.css" media="all" />\r\n    <link type="text/css" rel="stylesheet" href="../18f-files/d.css" media="all" />\r\n    \r\n    <!--[if lt IE 9]><link type="text/css" rel="stylesheet" href="../18f-files/e-ie.css" media="all" /><![endif]-->\r\n    <link rel="alternate" type="application/atom+xml" title="EPA.gov All Press Releases" href="https://www.epa.gov/newsreleases/search/rss" />\r\n    <link rel="alternate" type="application/atom+xml" title="EPA.gov Headquarters Press Releases" href="https://www.epa.gov/newsreleases/search/rss/field_press_office/headquarters" />\r\n    <link rel="alternate" type="application/atom+xml" title="Greenversations, EPA\'s Blog" href="https://blog.epa.gov/blog/feed/" />\r\n    <!--[if lt IE 9]><script src="https://www.epa.gov/sites/all/themes/epa/js/html5.js"></script><![endif]-->\r\n    <link type="text/css" rel="stylesheet" href="../18f-files/f.css" media="all" />\r\n    \r\n</head>\r\n<body class="html not-front not-logged-in one-sidebar sidebar-first page-node page-node-2553 node-type-page og-context og-context-node og-context-node-851 section-aboutepa microsite" >\r\n\r\n    <!-- Google Tag Manager -->\r\n<noscript><iframe src="//www.googletagmanager.com/ns.html?id=GTM-L8ZB" height="0" width="0" style="display:none;visibility:hidden"></iframe></noscript>\r\n<script>(function(w,d,s,l,i){w[l]=w[l]||[];w[l].push({\'gtm.start\':new Date().getTime(),event:\'gtm.js\'});var f=d.getElementsByTagName(s)[0],j=d.createElement(s),dl=l!=\'dataLayer\'?\'&l=\'+l:\'\';j.async=true;j.src=\'//www.googletagmanager.com/gtm.js?id=\'+i+dl;f.parentNode.insertBefore(j,f);})(window,document,\'script\',\'dataLayer\',\'GTM-L8ZB\');</script>\r\n  <!-- End Google Tag Manager -->\r\n  <div class="skip-links"><a href="#main-content" class="skip-link element-invisible element-focusable">Jump to main content</a></div>\r\n  <header class="masthead clearfix" role="banner">\r\n    <img class="site-logo" src="https://www.epa.gov/sites/all/themes/epa/logo.png" alt="" />\r\n    <hgroup class="site-name-and-slogan">\r\n      <h1 class="site-name"><a href="https://www.epa.gov/" title="Go to the home page" rel="home"><span>US EPA</span></a></h1>\r\n      <div class="site-slogan">United States Environmental Protection Agency</div>\r\n    </hgroup>\r\n    <form class="epa-search" method="get" action="https://search.epa.gov/epasearch/epasearch">\r\n      <label class="element-hidden" for="search-box">Search</label>\r\n      <input class="form-text" placeholder="Search EPA.gov" name="querytext" id="search-box" value=""/>\r\n      <button class="epa-search-button" id="search-button" type="submit" title="Search">Search</button>\r\n      <input type="hidden" name="areaname" value="" />\r\n      <input type="hidden" name="areacontacts" value="" />\r\n      <input type="hidden" name="areasearchurl" value="" />\r\n      <input type="hidden" name="typeofsearch" value="epa" />\r\n      <input type="hidden" name="result_template" value="2col.ftl" />\r\n    </form>\r\n  </header>\r\n  <section id="main-content" class="main-content clearfix" role="main">\r\n  <h2 class="microsite-name">Region 1: EPA New England</h2>  \r\n    <div class="region-preface clearfix">\r\n    \r\n    <div id="block-pane-social-sharing" class="block block-pane block-pane-social-sharing">\r\n    \r\n    </div>\r\n    \r\n      <div id="block-pane-epa-web-area-connect" class="block block-pane contextual-links-region">\r\n        <ul class="menu utility-menu">\r\n          <li class="menu-item"><a href="https://www.epa.gov/aboutepa/forms/contacting-epa-new-england" class="menu-link contact-us">Contact Us</a></li>\r\n        </ul>\r\n      </div>\r\n    </div>\r\n    <div class="main-column clearfix">\r\n<!--googleon: all-->\r\n      <h1 class="page-title"><!-- InstanceBeginEditable name="PageName" -->Vermont Draft Individual NPDES Permits<!-- InstanceEndEditable --></h1>\r\n      <div class="panel-pane pane-node-content" >\r\n        <div class="pane-content">\r\n          <div class="node node-page clearfix view-mode-full"><!-- InstanceBeginEditable name="content" -->\r\n\r\n\r\n            <p>The Vermont Draft Individual NPDES Permits webpage has moved. This web address will expire soon.</p>\r\n            <p>You will be redirected in <span id="timeLeft">10</span> seconds to the new web address (<a href="https://www.epa.gov/npdes-permits/vermont-draft-individual-npdes-permits">https://www.epa.gov/npdes-permits/vermont-draft-individual-npdes-permits</a>).</p>\r\n            <p>Please update your bookmarks.</p>\r\n\r\n      <!-- InstanceEndEditable --></div>\r\n        </div>\r\n      </div>\r\n\r\n    <div id="block-pane-epa-web-area-footer" class="block block-pane block-pane-epa-web-area-footer">\r\n      \r\n        <p class="web-area-footer"><a href="https://www.epa.gov/aboutepa/forms/contacting-epa-new-england" class="contact-us">Contact Us</a> to ask a question, provide feedback, or report a problem.</p>  \r\n    </div>\r\n\r\n    <!--googleoff: all-->\r\n    </div>\r\n    \r\n    <div class="region-sidebar-first region-sidebar">  \r\n      <div id="block-og-menu-og-single-menu-block" class="block block-og-menu block-og-menu-og-single-menu-block">\r\n      <noscript><h3 class="whiteText" style="text-align:center; padding-top:20px;">This page requires Javascript. Please enable it in your browser settings.</h3></noscript>\r\n        <script type="text/javascript" src="../18f-files/r1-left-nav.js"></script>\r\n        </div>\r\n    </div>\r\n    \r\n</section>\r\n  \r\n  <nav class="nav simple-nav simple-main-nav" role="navigation">\r\n    <div class="nav__inner">\r\n        <h2 class="element-invisible">Main menu</h2>    \r\n        <ul class="menu">\r\n          <li class="menu-item" id="main-menu-enviro-topics"><a href="https://www.epa.gov/environmental-topics" title="Learn about EPA&#039;s environmental topics to help protect the environment in your home, workplace, and community and EPA&#039;s research mission is to conduct leading-edge research and foster the sound use of science and technology." class="menu-link">Environmental Topics</a>\r\n          </li>\r\n            <li class="menu-item" id="main-menu-laws-regs"><a href="https://www.epa.gov/laws-regulations" title="Laws written by Congress provide the authority for EPA to write regulations. Regulations explain the technical, operational, and legal details necessary to implement laws." class="menu-link">Laws &amp; Regulations</a>\r\n            </li>\r\n          <li class="menu-item" id="main-menu-about-epa"><a href="https://www.epa.gov/aboutepa" title="Learn more about: our mission and what we do, how we are organized, and our history." class="menu-link">About EPA</a>\r\n          </li>\r\n        </ul>\r\n\r\n    </div>\r\n  </nav>\r\n  \r\n<footer class="main-footer clearfix" role="contentinfo">\r\n    <div class="main-footer__inner">\r\n        <div class="region-footer">\r\n            <div id="block-pane-epa-global-footer" class="block block-pane  block-pane-epa-global-footer">\r\n                <div class="row cols-3">\r\n                    <div class="col size-1of3">\r\n                        <div class="col__title">Discover.</div>\r\n                        <ul class="menu">\r\n                          <li><a href="https://www.epa.gov/accessibility">Accessibility</a></li>\r\n                          <li><a href="https://www.epa.gov/aboutepa/administrator-gina-mccarthy">EPA Administrator</a></li>\r\n                          <li><a href="https://www.epa.gov/planandbudget">Budget &amp; Performance</a></li>\r\n                          <li><a href="https://www.epa.gov/contracts">Contracting</a></li>\r\n                          <li><a href="https://www.epa.gov/home/grants-and-other-funding-opportunities">Grants</a></li>\r\n                          <li><a href="https://www.epa.gov/ocr/whistleblower-protections-epa-and-how-they-relate-non-disclosure-agreements-signed-epa-employees">No FEAR Act Data</a></li>\r\n                          <li><a href="https://www.epa.gov/home/privacy-and-security-notice">Privacy and Security</a></li>\r\n                        </ul>\r\n                    </div>\r\n                    \r\n                    <div class="col size-1of3">\r\n                        <div class="col__title">Connect.</div>\r\n                        <ul class="menu">\r\n                          <li><a href="https://www.data.gov/">Data.gov</a></li>\r\n                          <li><a href="https://www.epa.gov/office-inspector-general/about-epas-office-inspector-general">Inspector General</a></li>\r\n                          <li><a href="https://www.epa.gov/careers">Jobs</a></li>\r\n                          <li><a href="https://www.epa.gov/newsroom">Newsroom</a></li>\r\n                          <li><a href="https://www.whitehouse.gov/open">Open Government</a></li>\r\n                          <li><a href="http://www.regulations.gov/">Regulations.gov</a></li>\r\n                          <li><a href="https://www.epa.gov/newsroom/email-subscriptions">Subscribe</a></li>\r\n                          <li><a href="https://www.usa.gov/">USA.gov</a></li>\r\n                          <li><a href="https://www.whitehouse.gov/">White House</a></li>\r\n                        </ul>\r\n                    </div>\r\n                    \r\n                    <div class="col size-1of3">\r\n                        <div class="col__title">Ask.</div>\r\n                        <ul class="menu">\r\n                          <li><a href="https://www.epa.gov/home/forms/contact-us">Contact Us</a></li>\r\n                          <li><a href="https://www.epa.gov/home/epa-hotlines">Hotlines</a></li>\r\n                          <li><a href="https://www.epa.gov/foia">FOIA Requests</a></li>\r\n                          <li><a href="https://www.epa.gov/home/frequent-questions-specific-epa-programstopics">Frequent Questions</a></li>\r\n                        </ul>\r\n                        \r\n                        <div class="col__title">Follow.</div>\r\n                        <ul class="social-menu">\r\n                          <li><a class="menu-link social-facebook" href="https://www.facebook.com/EPA">Facebook</a></li>\r\n                          <li><a class="menu-link social-twitter" href="https://twitter.com/epa">Twitter</a></li>\r\n                          <li><a class="menu-link social-youtube" href="https://www.youtube.com/user/USEPAgov">YouTube</a></li>\r\n                          <li><a class="menu-link social-flickr" href="https://www.flickr.com/photos/usepagov">Flickr</a></li>\r\n                          <li><a class="menu-link social-instagram" href="https://www.instagram.com/epagov">Instagram</a></li>\r\n                        </ul>\r\n                        \r\n                        <p class="last-updated">Last updated on <!-- #BeginDate format:Am1 -->August 25, 2017<!-- #EndDate --></p>\r\n                    </div>\r\n                </div>  \r\n            </div>\r\n        </div>\r\n    </div>\r\n</footer>   \r\n\r\n<script type="text/javascript" src="https://www.epa.gov/sites/all/libraries/template/jquery.js"></script>\r\n<script type="text/javascript" src="../18f-files/template-js.js"></script>\r\n<script type="text/javascript" src="https://www.epa.gov/sites/all/modules/custom/epa_core/js/alert.js"></script>  \r\n<script type="text/javascript" src="../18f-files/append-submenu.js"></script>  \r\n<script type="text/javascript" src="https://www3.epa.gov/region1/js/slimbox2/js/slimbox2.js"></script>\r\n<script type="text/javascript">\r\n(function ($){\r\n\t$(\'head\').append(\'<link rel="stylesheet" type="text/css" href="https://www3.epa.gov/region1/js/slimbox2/css/slimbox2.css" />\');\r\n})(jQuery);\r\n</script>\r\n<!-- InstanceBeginEditable name="scripts" --> \r\n<script type="text/javascript">\r\n(function ($){\r\n\r\n    window.setInterval(function() {\r\n    var timeLeft = $(\'#timeLeft\').html();                                \r\n        if(parseInt(timeLeft) == 0){\r\n                window.location= (\'https://www.epa.gov/npdes-permits/vermont-draft-individual-npdes-permits\');                 \r\n        }else{              \r\n            $(\'#timeLeft\').html(parseInt(timeLeft) - parseInt(1));\r\n        }\r\n    }, 1000); \r\n\r\n})(jQuery);\r\n</script>\r\n<style>\r\n#timeLeft { color:red; font-weight: bold; }\r\n</style>\r\n<!-- InstanceEndEditable --> \r\n<!--[if lt IE 9]><script src="https://www.epa.gov/sites/all/themes/epa/js/ie.js"></script><![endif]-->\r\n</body>\r\n<!-- InstanceEnd --></html>\r\n'
p11
aS'<!DOCTYPE html>\r\n<!--[if IEMobile 7]><html class="iem7 no-js" lang="en" dir="ltr"><![endif]-->\r\n<!--[if lt IE 7]><html class="lt-ie9 lt-ie8 lt-ie7 no-js" lang="en" dir="ltr"><![endif]-->\r\n<!--[if (IE 7)&(!IEMobile)]><html class="lt-ie9 lt-ie8 no-js" lang="en" dir="ltr"><![endif]-->\r\n<!--[if IE 8]><html class="lt-ie9 no-js" lang="en" dir="ltr"><![endif]-->\r\n<!--[if (gt IE 8)|(gt IEMobile 7)]><!--> <html class="no-js not-oldie" lang="en" dir="ltr"><!-- InstanceBegin template="/Templates/1epane-18f.dwt" codeOutsideHTMLIsLocked="false" -->\r\n <!--<![endif]-->\r\n<head>\r\n    <meta charset="utf-8" />\r\n    <meta http-equiv="X-UA-Compatible" content="IE=edge" />\r\n    <meta name="HandheldFriendly" content="true" />\r\n    <link rel="shortcut icon" href="https://www.epa.gov/sites/all/themes/epa/favicon.ico" type="image/vnd.microsoft.icon" />\r\n    <meta name="MobileOptimized" content="width" />\r\n    <meta http-equiv="cleartype" content="on" />\r\n    <meta http-equiv="ImageToolbar" content="false" />\r\n    <meta name="viewport" content="width=device-width" />\r\n    <meta name="version" content="20161218" />\r\n    <!--googleon: all-->\r\n    <!-- InstanceBeginEditable name="metaElements" -->\r\n<title>Vermont - Final-issuance Individual Facility Permits | NPDES Permits in New England | US EPA</title>\r\n<meta name="DC.description" content="EPA New England Issued NPDES Permits for Vermont" />\r\n<meta name="keywords" content="npdes, national pollutant discharge elimination system, wastewater, discharge, stormwater, publicly owned treatment works facility, potw, water pollution control facility, wpcf, wastewater treatment facility, wwtf, wastewater treatment plant, wwtp, final permit, vermont" />\r\n<meta name="DC.title" content="Vermont - Final-issuance Individual Facility Permits" />\r\n<meta name="DC.Subject.epabrm" content="Manage Water Quality" />\r\n<meta name="DC.type" content="Collections &amp; Lists" />\r\n<meta name="DC.Subject.epachannel" content="Laws &amp; Regulations" />\r\n<meta http-equiv="Refresh" content="15;URL=https://www.epa.gov/npdes-permits/vermont-final-individual-npdes-permits" />\r\n<!-- InstanceEndEditable -->\r\n    <!--googleoff: snippet-->\r\n    <meta name="DC.creator" content="US EPA,REG 01" />\r\n    <meta name="DC.language" content="en" />\r\n    <meta name="DC.date.created" content="2011-02-14" />\r\n    <meta name="DC.date.modified" content="2017-05-19" />\r\n    <!--googleoff: all-->\r\n    <link type="text/css" rel="stylesheet" href="../18f-files/a.css" media="all" />\r\n    <link type="text/css" rel="stylesheet" href="../18f-files/b.css" media="all" />\r\n    <link type="text/css" rel="stylesheet" href="../18f-files/c.css" media="all" />\r\n    <link type="text/css" rel="stylesheet" href="../18f-files/d.css" media="all" />\r\n    \r\n    <!--[if lt IE 9]><link type="text/css" rel="stylesheet" href="../18f-files/e-ie.css" media="all" /><![endif]-->\r\n    <link rel="alternate" type="application/atom+xml" title="EPA.gov All Press Releases" href="https://www.epa.gov/newsreleases/search/rss" />\r\n    <link rel="alternate" type="application/atom+xml" title="EPA.gov Headquarters Press Releases" href="https://www.epa.gov/newsreleases/search/rss/field_press_office/headquarters" />\r\n    <link rel="alternate" type="application/atom+xml" title="Greenversations, EPA\'s Blog" href="https://blog.epa.gov/blog/feed/" />\r\n    <!--[if lt IE 9]><script src="https://www.epa.gov/sites/all/themes/epa/js/html5.js"></script><![endif]-->\r\n    <link type="text/css" rel="stylesheet" href="../18f-files/f.css" media="all" />\r\n    \r\n</head>\r\n<body class="html not-front not-logged-in one-sidebar sidebar-first page-node page-node-2553 node-type-page og-context og-context-node og-context-node-851 section-aboutepa microsite" >\r\n\r\n    <!-- Google Tag Manager -->\r\n<noscript><iframe src="//www.googletagmanager.com/ns.html?id=GTM-L8ZB" height="0" width="0" style="display:none;visibility:hidden"></iframe></noscript>\r\n<script>(function(w,d,s,l,i){w[l]=w[l]||[];w[l].push({\'gtm.start\':new Date().getTime(),event:\'gtm.js\'});var f=d.getElementsByTagName(s)[0],j=d.createElement(s),dl=l!=\'dataLayer\'?\'&l=\'+l:\'\';j.async=true;j.src=\'//www.googletagmanager.com/gtm.js?id=\'+i+dl;f.parentNode.insertBefore(j,f);})(window,document,\'script\',\'dataLayer\',\'GTM-L8ZB\');</script>\r\n  <!-- End Google Tag Manager -->\r\n  <div class="skip-links"><a href="#main-content" class="skip-link element-invisible element-focusable">Jump to main content</a></div>\r\n  <header class="masthead clearfix" role="banner">\r\n    <img class="site-logo" src="https://www.epa.gov/sites/all/themes/epa/logo.png" alt="" />\r\n    <hgroup class="site-name-and-slogan">\r\n      <h1 class="site-name"><a href="https://www.epa.gov/" title="Go to the home page" rel="home"><span>US EPA</span></a></h1>\r\n      <div class="site-slogan">United States Environmental Protection Agency</div>\r\n    </hgroup>\r\n    <form class="epa-search" method="get" action="https://search.epa.gov/epasearch/epasearch">\r\n      <label class="element-hidden" for="search-box">Search</label>\r\n      <input class="form-text" placeholder="Search EPA.gov" name="querytext" id="search-box" value=""/>\r\n      <button class="epa-search-button" id="search-button" type="submit" title="Search">Search</button>\r\n      <input type="hidden" name="areaname" value="" />\r\n      <input type="hidden" name="areacontacts" value="" />\r\n      <input type="hidden" name="areasearchurl" value="" />\r\n      <input type="hidden" name="typeofsearch" value="epa" />\r\n      <input type="hidden" name="result_template" value="2col.ftl" />\r\n    </form>\r\n  </header>\r\n  <section id="main-content" class="main-content clearfix" role="main">\r\n  <h2 class="microsite-name">Region 1: EPA New England</h2>  \r\n    <div class="region-preface clearfix">\r\n    \r\n    <div id="block-pane-social-sharing" class="block block-pane block-pane-social-sharing">\r\n    \r\n    </div>\r\n    \r\n      <div id="block-pane-epa-web-area-connect" class="block block-pane contextual-links-region">\r\n        <ul class="menu utility-menu">\r\n          <li class="menu-item"><a href="https://www.epa.gov/aboutepa/forms/contacting-epa-new-england" class="menu-link contact-us">Contact Us</a></li>\r\n        </ul>\r\n      </div>\r\n    </div>\r\n    <div class="main-column clearfix">\r\n<!--googleon: all-->\r\n      <h1 class="page-title"><!-- InstanceBeginEditable name="PageName" -->Vermont Final Individual NPDES Permits<!-- InstanceEndEditable --></h1>\r\n      <div class="panel-pane pane-node-content" >\r\n        <div class="pane-content">\r\n          <div class="node node-page clearfix view-mode-full"><!-- InstanceBeginEditable name="content" -->\r\n\r\n\r\n            <p>The Vermont Final Individual NPDES Permits webpage has moved. This web address will expire soon.</p>\r\n            <p>You will be redirected in <span id="timeLeft">10</span> seconds to the new web address (<a href="https://www.epa.gov/npdes-permits/vermont-final-individual-npdes-permits">https://www.epa.gov/npdes-permits/vermont-final-individual-npdes-permits</a>).</p>\r\n            <p>Please update your bookmarks.</p>\r\n\r\n      <!-- InstanceEndEditable --></div>\r\n        </div>\r\n      </div>\r\n\r\n    <div id="block-pane-epa-web-area-footer" class="block block-pane block-pane-epa-web-area-footer">\r\n      \r\n        <p class="web-area-footer"><a href="https://www.epa.gov/aboutepa/forms/contacting-epa-new-england" class="contact-us">Contact Us</a> to ask a question, provide feedback, or report a problem.</p>  \r\n    </div>\r\n\r\n    <!--googleoff: all-->\r\n    </div>\r\n    \r\n    <div class="region-sidebar-first region-sidebar">  \r\n      <div id="block-og-menu-og-single-menu-block" class="block block-og-menu block-og-menu-og-single-menu-block">\r\n      <noscript><h3 class="whiteText" style="text-align:center; padding-top:20px;">This page requires Javascript. Please enable it in your browser settings.</h3></noscript>\r\n        <script type="text/javascript" src="../18f-files/r1-left-nav.js"></script>\r\n        </div>\r\n    </div>\r\n    \r\n</section>\r\n  \r\n  <nav class="nav simple-nav simple-main-nav" role="navigation">\r\n    <div class="nav__inner">\r\n        <h2 class="element-invisible">Main menu</h2>    \r\n        <ul class="menu">\r\n          <li class="menu-item" id="main-menu-enviro-topics"><a href="https://www.epa.gov/environmental-topics" title="Learn about EPA&#039;s environmental topics to help protect the environment in your home, workplace, and community and EPA&#039;s research mission is to conduct leading-edge research and foster the sound use of science and technology." class="menu-link">Environmental Topics</a>\r\n          </li>\r\n            <li class="menu-item" id="main-menu-laws-regs"><a href="https://www.epa.gov/laws-regulations" title="Laws written by Congress provide the authority for EPA to write regulations. Regulations explain the technical, operational, and legal details necessary to implement laws." class="menu-link">Laws &amp; Regulations</a>\r\n            </li>\r\n          <li class="menu-item" id="main-menu-about-epa"><a href="https://www.epa.gov/aboutepa" title="Learn more about: our mission and what we do, how we are organized, and our history." class="menu-link">About EPA</a>\r\n          </li>\r\n        </ul>\r\n\r\n    </div>\r\n  </nav>\r\n  \r\n<footer class="main-footer clearfix" role="contentinfo">\r\n    <div class="main-footer__inner">\r\n        <div class="region-footer">\r\n            <div id="block-pane-epa-global-footer" class="block block-pane  block-pane-epa-global-footer">\r\n                <div class="row cols-3">\r\n                    <div class="col size-1of3">\r\n                        <div class="col__title">Discover.</div>\r\n                        <ul class="menu">\r\n                          <li><a href="https://www.epa.gov/accessibility">Accessibility</a></li>\r\n                          <li><a href="https://www.epa.gov/aboutepa/administrator-gina-mccarthy">EPA Administrator</a></li>\r\n                          <li><a href="https://www.epa.gov/planandbudget">Budget &amp; Performance</a></li>\r\n                          <li><a href="https://www.epa.gov/contracts">Contracting</a></li>\r\n                          <li><a href="https://www.epa.gov/home/grants-and-other-funding-opportunities">Grants</a></li>\r\n                          <li><a href="https://www.epa.gov/ocr/whistleblower-protections-epa-and-how-they-relate-non-disclosure-agreements-signed-epa-employees">No FEAR Act Data</a></li>\r\n                          <li><a href="https://www.epa.gov/home/privacy-and-security-notice">Privacy and Security</a></li>\r\n                        </ul>\r\n                    </div>\r\n                    \r\n                    <div class="col size-1of3">\r\n                        <div class="col__title">Connect.</div>\r\n                        <ul class="menu">\r\n                          <li><a href="https://www.data.gov/">Data.gov</a></li>\r\n                          <li><a href="https://www.epa.gov/office-inspector-general/about-epas-office-inspector-general">Inspector General</a></li>\r\n                          <li><a href="https://www.epa.gov/careers">Jobs</a></li>\r\n                          <li><a href="https://www.epa.gov/newsroom">Newsroom</a></li>\r\n                          <li><a href="https://www.whitehouse.gov/open">Open Government</a></li>\r\n                          <li><a href="http://www.regulations.gov/">Regulations.gov</a></li>\r\n                          <li><a href="https://www.epa.gov/newsroom/email-subscriptions">Subscribe</a></li>\r\n                          <li><a href="https://www.usa.gov/">USA.gov</a></li>\r\n                          <li><a href="https://www.whitehouse.gov/">White House</a></li>\r\n                        </ul>\r\n                    </div>\r\n                    \r\n                    <div class="col size-1of3">\r\n                        <div class="col__title">Ask.</div>\r\n                        <ul class="menu">\r\n                          <li><a href="https://www.epa.gov/home/forms/contact-us">Contact Us</a></li>\r\n                          <li><a href="https://www.epa.gov/home/epa-hotlines">Hotlines</a></li>\r\n                          <li><a href="https://www.epa.gov/foia">FOIA Requests</a></li>\r\n                          <li><a href="https://www.epa.gov/home/frequent-questions-specific-epa-programstopics">Frequent Questions</a></li>\r\n                        </ul>\r\n                        \r\n                        <div class="col__title">Follow.</div>\r\n                        <ul class="social-menu">\r\n                          <li><a class="menu-link social-facebook" href="https://www.facebook.com/EPA">Facebook</a></li>\r\n                          <li><a class="menu-link social-twitter" href="https://twitter.com/epa">Twitter</a></li>\r\n                          <li><a class="menu-link social-youtube" href="https://www.youtube.com/user/USEPAgov">YouTube</a></li>\r\n                          <li><a class="menu-link social-flickr" href="https://www.flickr.com/photos/usepagov">Flickr</a></li>\r\n                          <li><a class="menu-link social-instagram" href="https://www.instagram.com/epagov">Instagram</a></li>\r\n                        </ul>\r\n                        \r\n                        <p class="last-updated">Last updated on <!-- #BeginDate format:Am1 -->August 25, 2017<!-- #EndDate --></p>\r\n                    </div>\r\n                </div>  \r\n            </div>\r\n        </div>\r\n    </div>\r\n</footer>   \r\n\r\n<script type="text/javascript" src="https://www.epa.gov/sites/all/libraries/template/jquery.js"></script>\r\n<script type="text/javascript" src="../18f-files/template-js.js"></script>\r\n<script type="text/javascript" src="https://www.epa.gov/sites/all/modules/custom/epa_core/js/alert.js"></script>  \r\n<script type="text/javascript" src="../18f-files/append-submenu.js"></script>  \r\n<script type="text/javascript" src="https://www3.epa.gov/region1/js/slimbox2/js/slimbox2.js"></script>\r\n<script type="text/javascript">\r\n(function ($){\r\n\t$(\'head\').append(\'<link rel="stylesheet" type="text/css" href="https://www3.epa.gov/region1/js/slimbox2/css/slimbox2.css" />\');\r\n})(jQuery);\r\n</script>\r\n<!-- InstanceBeginEditable name="scripts" --> \r\n<script type="text/javascript">\r\n(function ($){\r\n\r\n    window.setInterval(function() {\r\n    var timeLeft = $(\'#timeLeft\').html();                                \r\n        if(parseInt(timeLeft) == 0){\r\n                window.location= (\'https://www.epa.gov/npdes-permits/vermont-final-individual-npdes-permits\');                 \r\n        }else{              \r\n            $(\'#timeLeft\').html(parseInt(timeLeft) - parseInt(1));\r\n        }\r\n    }, 1000); \r\n\r\n})(jQuery);\r\n</script>\r\n<style>\r\n#timeLeft { color:red; font-weight: bold; }\r\n</style>\r\n<!-- InstanceEndEditable --> \r\n<!--[if lt IE 9]><script src="https://www.epa.gov/sites/all/themes/epa/js/ie.js"></script><![endif]-->\r\n</body>\r\n<!-- InstanceEnd --></html>\r\n'
p12
a.